

Microchip MPLAB XC8 Assembler V2.10 build 88905656 
                                                                                               Thu Nov 21 18:15:41 2019

Microchip MPLAB XC8 C Compiler v2.10 (Free license) build 20190730164152 Og1 
     1                           	processor	18F4550
     2                           	fnconf	rparam,??,?,0
     3                           	opt	pw 120
     4                           	opt	flic
     5                           	psect	smallconst,global,reloc=2,class=SMALLCONST,delta=1,noexec
     6                           	psect	cinit,global,reloc=2,class=CODE,delta=1
     7                           	psect	bssCOMRAM,global,class=COMRAM,space=1,delta=1,noexec
     8                           	psect	cstackCOMRAM,global,class=COMRAM,space=1,delta=1,noexec
     9                           	psect	text0,global,reloc=2,class=CODE,delta=1
    10                           	psect	text1,global,reloc=2,class=CODE,delta=1
    11                           	psect	text2,global,reloc=2,class=CODE,delta=1
    12                           	psect	text3,global,reloc=2,class=CODE,delta=1
    13                           	psect	text4,global,reloc=2,class=CODE,delta=1
    14                           	psect	text5,global,reloc=2,class=CODE,delta=1
    15                           	psect	text6,global,reloc=2,class=CODE,delta=1
    16                           	psect	text7,global,reloc=2,class=CODE,delta=1
    17                           	psect	text8,global,reloc=2,class=CODE,delta=1
    18                           	psect	text9,global,reloc=2,class=CODE,delta=1
    19                           	psect	text10,global,reloc=2,class=CODE,delta=1
    20                           	psect	text11,global,reloc=2,class=CODE,delta=1
    21                           	psect	text12,global,reloc=2,class=CODE,delta=1
    22                           	psect	text13,global,reloc=2,class=CODE,delta=1
    23                           	psect	text14,global,reloc=2,class=CODE,delta=1
    24                           	psect	text15,global,reloc=2,class=CODE,delta=1
    25                           	psect	text16,global,reloc=2,class=CODE,delta=1
    26                           	psect	text17,global,reloc=2,class=CODE,delta=1
    27                           	psect	text18,global,reloc=2,class=CODE,delta=1
    28                           	psect	text19,global,reloc=2,class=CODE,delta=1
    29                           	psect	text20,global,reloc=2,class=CODE,delta=1
    30                           	psect	text21,global,reloc=2,class=CODE,delta=1
    31                           	psect	text22,global,reloc=2,class=CODE,delta=1
    32                           	psect	text23,global,reloc=2,class=CODE,delta=1
    33                           	psect	text24,global,reloc=2,class=CODE,delta=1
    34                           	psect	text25,global,reloc=2,class=CODE,delta=1
    35                           	psect	text26,global,reloc=2,class=CODE,delta=1
    36                           	psect	text27,global,reloc=2,class=CODE,delta=1
    37                           	psect	text28,global,reloc=2,class=CODE,delta=1
    38                           	psect	text29,global,reloc=2,class=CODE,delta=1
    39                           	psect	text30,global,reloc=2,class=CODE,delta=1
    40                           	psect	text31,global,reloc=2,class=CODE,delta=1
    41                           	psect	text32,global,reloc=2,class=CODE,delta=1
    42                           	psect	text33,global,reloc=2,class=CODE,delta=1
    43                           	psect	text34,global,reloc=2,class=CODE,delta=1
    44                           	psect	text35,global,reloc=2,class=CODE,delta=1
    45                           	psect	text36,global,reloc=2,class=CODE,delta=1
    46                           	psect	text37,global,reloc=2,class=CODE,delta=1
    47                           	psect	text38,global,reloc=2,class=CODE,delta=1
    48                           	psect	text39,global,reloc=2,class=CODE,delta=1
    49                           	psect	text40,global,reloc=2,class=CODE,delta=1
    50                           	psect	text41,global,reloc=2,class=CODE,delta=1
    51                           	psect	text42,global,reloc=2,class=CODE,delta=1
    52                           	psect	text43,global,reloc=2,class=CODE,delta=1
    53                           	psect	text44,global,reloc=2,class=CODE,delta=1
    54                           	psect	text45,global,reloc=2,class=CODE,delta=1
    55                           	psect	text46,global,reloc=2,class=CODE,delta=1
    56                           	psect	text47,global,reloc=2,class=CODE,delta=1
    57                           	psect	text48,global,reloc=2,class=CODE,delta=1
    58                           	psect	text49,global,reloc=2,class=CODE,delta=1
    59                           	psect	text50,global,reloc=2,class=CODE,delta=1
    60                           	psect	text51,global,reloc=2,class=CODE,delta=1
    61                           	psect	text52,global,reloc=2,class=CODE,delta=1
    62                           	psect	text53,global,reloc=2,class=CODE,delta=1
    63                           	psect	text54,global,reloc=2,class=CODE,delta=1
    64                           	psect	text55,global,reloc=2,class=CODE,delta=1
    65                           	psect	text56,global,reloc=2,class=CODE,delta=1
    66                           	psect	text57,global,reloc=2,class=CODE,delta=1
    67                           	psect	text58,global,reloc=2,class=CODE,delta=1
    68                           	psect	text59,global,reloc=2,class=CODE,delta=1
    69                           	psect	text60,global,reloc=2,class=CODE,delta=1
    70                           	psect	text61,global,reloc=2,class=CODE,delta=1
    71                           	psect	text62,global,reloc=2,class=CODE,delta=1
    72                           	psect	text63,global,reloc=2,class=CODE,delta=1
    73                           	psect	text64,global,reloc=2,class=CODE,delta=1
    74                           	psect	text65,global,reloc=2,class=CODE,delta=1
    75                           	psect	text66,global,reloc=2,class=CODE,delta=1
    76                           	psect	text67,global,reloc=2,class=CODE,delta=1
    77                           	psect	text68,global,reloc=2,class=CODE,delta=1
    78                           	psect	intsave_regs,global,class=BIGRAM,space=1,delta=1,noexec
    79                           	psect	rparam,global,class=COMRAM,space=1,delta=1,noexec
    80  0000                     
    81                           ; Version 2.10
    82                           ; Generated 31/07/2019 GMT
    83                           ; 
    84                           ; Copyright Â© 2019, Microchip Technology Inc. and its subsidiaries ("Microchip")
    85                           ; All rights reserved.
    86                           ; 
    87                           ; This software is developed by Microchip Technology Inc. and its subsidiaries ("Microch
      +                          ip").
    88                           ; 
    89                           ; Redistribution and use in source and binary forms, with or without modification, are
    90                           ; permitted provided that the following conditions are met:
    91                           ; 
    92                           ;     1. Redistributions of source code must retain the above copyright notice, this lis
      +                          t of
    93                           ;        conditions and the following disclaimer.
    94                           ; 
    95                           ;     2. Redistributions in binary form must reproduce the above copyright notice, this 
      +                          list
    96                           ;        of conditions and the following disclaimer in the documentation and/or other
    97                           ;        materials provided with the distribution.
    98                           ; 
    99                           ;     3. Microchip's name may not be used to endorse or promote products derived from th
      +                          is
   100                           ;        software without specific prior written permission.
   101                           ; 
   102                           ; THIS SOFTWARE IS PROVIDED BY MICROCHIP "AS IS" AND ANY EXPRESS OR IMPLIED WARRANTIES,
   103                           ; INCLUDING, BUT NOT LIMITED TO, THE IMPLIED WARRANTIES OF MERCHANTABILITY AND FITNESS F
      +                          OR
   104                           ; PURPOSE ARE DISCLAIMED.  IN NO EVENT SHALL MICROCHIP BE LIABLE FOR ANY DIRECT, INDIREC
      +                          T,
   105                           ; INCIDENTAL, SPECIAL, EXEMPLARY, OR CONSEQUENTIAL DAMAGES (INCLUDING BUT NOT LIMITED TO
   106                           ; PROCUREMENT OF SUBSTITUTE GOODS OR SERVICES; LOSS OF USE, DATA OR PROFITS; OR BUSINESS
   107                           ; INTERRUPTION) HOWSOEVER CAUSED AND ON ANY THEORY OF LIABILITY, WHETHER IN CONTRACT, ST
      +                          RICT
   108                           ; LIABILITY, OR TORT (INCLUDING NEGLIGENCE OR OTHERWISE) ARISING IN ANY WAY OUT OF THE U
      +                          SE OF
   109                           ; THIS SOFTWARE, EVEN IF ADVISED OF THE POSSIBILITY OF SUCH DAMAGE.
   110                           ; 
   111                           ; 
   112                           ; Code-generator required, PIC18F4550 Definitions
   113                           ; 
   114                           ; SFR Addresses
   115  0000                     _RCREG	set	4014
   116  0000                     _TXREG	set	4013
   117  0000                     _PIE1bits	set	3997
   118  0000                     _IPR1bits	set	3999
   119  0000                     _BAUDCONbits	set	4024
   120  0000                     _TXSTAbits	set	4012
   121  0000                     _RCSTAbits	set	4011
   122  0000                     _SPBRG	set	4015
   123  0000                     _TRISCbits	set	3988
   124  0000                     _PIR1bits	set	3998
   125  0000                     _LATBbits	set	3978
   126  0000                     _TRISBbits	set	3987
   127  0000                     _RCONbits	set	4048
   128  0000                     _ADCON1bits	set	4033
   129  0000                     _OSCCONbits	set	4051
   130                           
   131                           	psect	smallconst
   132  000800                     __psmallconst:
   133                           	opt callstack 0
   134  000800  00                 	db	0
   135  000801                     STR_2:
   136  000801  45                 	db	69	;'E'
   137  000802  72                 	db	114	;'r'
   138  000803  72                 	db	114	;'r'
   139  000804  6F                 	db	111	;'o'
   140  000805  72                 	db	114	;'r'
   141  000806  2C                 	db	44
   142  000807  20                 	db	32
   143  000808  C1                 	db	-63
   144  000809  6E                 	db	110	;'n'
   145  00080A  67                 	db	103	;'g'
   146  00080B  75                 	db	117	;'u'
   147  00080C  6C                 	db	108	;'l'
   148  00080D  6F                 	db	111	;'o'
   149  00080E  20                 	db	32
   150  00080F  65                 	db	101	;'e'
   151  000810  72                 	db	114	;'r'
   152  000811  72                 	db	114	;'r'
   153  000812  6F                 	db	111	;'o'
   154  000813  6E                 	db	110	;'n'
   155  000814  65                 	db	101	;'e'
   156  000815  6F                 	db	111	;'o'
   157  000816  20                 	db	32
   158  000817  0D                 	db	13
   159  000818  0A                 	db	10
   160  000819  00                 	db	0
   161  00081A                     STR_1:
   162  00081A  47                 	db	71	;'G'
   163  00081B  4F                 	db	79	;'O'
   164  00081C  4C                 	db	76	;'L'
   165  00081D  41                 	db	65	;'A'
   166  00081E  00                 	db	0
   167                           
   168                           ; #config settings
   169  00081F  00                 	db	0	; dummy byte at the end
   170  0000                     
   171                           	psect	cinit
   172  001C5A                     __pcinit:
   173                           	opt callstack 0
   174  001C5A                     start_initialization:
   175                           	opt callstack 0
   176  001C5A                     __initialization:
   177                           	opt callstack 0
   178                           
   179                           ; Clear objects allocated to COMRAM (2 bytes)
   180  001C5A  6A07               	clrf	(__pbssCOMRAM+1)& (0+255),c
   181  001C5C  6A06               	clrf	__pbssCOMRAM& (0+255),c
   182  001C5E                     end_of_initialization:
   183                           	opt callstack 0
   184  001C5E                     __end_of__initialization:
   185                           	opt callstack 0
   186  001C5E  0E00               	movlw	low (__Lmediumconst shr (0+16))
   187  001C60  6EF8               	movwf	tblptru,c
   188  001C62  0100               	movlb	0
   189  001C64  EF10  F004         	goto	_main	;jump to C main() function
   190                           
   191                           	psect	bssCOMRAM
   192  000006                     __pbssCOMRAM:
   193                           	opt callstack 0
   194  000006                     _aux:
   195                           	opt callstack 0
   196  000006                     	ds	1
   197  000007                     _Mensaje:
   198                           	opt callstack 0
   199  000007                     	ds	1
   200                           
   201                           	psect	cstackCOMRAM
   202  000001                     __pcstackCOMRAM:
   203                           	opt callstack 0
   204  000001                     ??_Servo_Tres_75:
   205  000001                     ??_Servo_Cuatro_75:
   206  000001                     ??_Servo_Tres_90:
   207  000001                     ??_Servo_Cuatro_90:
   208  000001                     ??_Servo_Tres_105:
   209  000001                     ??_Servo_Cuatro_105:
   210  000001                     ??_Servo_Tres_60:
   211  000001                     ??_Servo_Cuatro_60:
   212  000001                     ??_Servo_Tres_45:
   213  000001                     ??_Servo_Cuatro_45:
   214  000001                     ??_Servo_Tres_120:
   215  000001                     ??_Servo_Cuatro_120:
   216  000001                     ??_Servo_Tres_30:
   217  000001                     ??_Servo_Cuatro_30:
   218  000001                     ??_Servo_Tres_135:
   219  000001                     ??_Servo_Cuatro_135:
   220  000001                     ??_Servo_Tres_15:
   221  000001                     ??_Servo_Cuatro_15:
   222  000001                     ??_Servo_Tres_150:
   223  000001                     ??_Servo_Cuatro_150:
   224  000001                     ??_Servo_Tres_0:
   225  000001                     ??_Servo_Cuatro_0:
   226  000001                     ??_Servo_Cinco_0:
   227  000001                     ??_Servo_Seis_0:
   228  000001                     ??_Servo_Cinco_30:
   229  000001                     ??_Servo_Seis_30:
   230  000001                     ??_Servo_Cinco_60:
   231  000001                     ??_Servo_Seis_60:
   232  000001                     ??_Servo_Cinco_15:
   233  000001                     ??_Servo_Seis_15:
   234  000001                     ??_Servo_Cinco_45:
   235  000001                     ??_Servo_Seis_45:
   236  000001                     ??_Servo_Uno_0:
   237  000001                     ??_Servo_Dos_0:
   238  000001                     ??_Servo_Uno_30:
   239  000001                     ??_Servo_Dos_30:
   240  000001                     ??_Servo_Uno_60:
   241  000001                     ??_Servo_Dos_60:
   242  000001                     ??_Servo_Uno_90:
   243  000001                     ??_Servo_Dos_90:
   244  000001                     ??_Servo_Uno_15:
   245  000001                     ??_Servo_Dos_15:
   246  000001                     ??_Servo_Uno_45:
   247  000001                     ??_Servo_Dos_45:
   248  000001                     ??_Servo_Uno_75:
   249  000001                     ??_Servo_Dos_75:
   250  000001                     ??_Interrupciones_Usart:
   251  000001                     Tx_str@data:
   252                           	opt callstack 0
   253                           
   254                           ; 1 bytes @ 0x0
   255  000001                     	ds	1
   256  000002                     Interrupciones_Usart@priority:
   257                           	opt callstack 0
   258  000002                     Servo_Uno_0@i:
   259                           	opt callstack 0
   260  000002                     Servo_Uno_15@i:
   261                           	opt callstack 0
   262  000002                     Servo_Uno_30@i:
   263                           	opt callstack 0
   264  000002                     Servo_Uno_45@i:
   265                           	opt callstack 0
   266  000002                     Servo_Uno_60@i:
   267                           	opt callstack 0
   268  000002                     Servo_Uno_75@i:
   269                           	opt callstack 0
   270  000002                     Servo_Uno_90@i:
   271                           	opt callstack 0
   272  000002                     Servo_Dos_0@i:
   273                           	opt callstack 0
   274  000002                     Servo_Dos_15@i:
   275                           	opt callstack 0
   276  000002                     Servo_Dos_30@i:
   277                           	opt callstack 0
   278  000002                     Servo_Dos_45@i:
   279                           	opt callstack 0
   280  000002                     Servo_Dos_60@i:
   281                           	opt callstack 0
   282  000002                     Servo_Dos_75@i:
   283                           	opt callstack 0
   284  000002                     Servo_Dos_90@i:
   285                           	opt callstack 0
   286  000002                     Servo_Tres_0@i:
   287                           	opt callstack 0
   288  000002                     Servo_Tres_15@i:
   289                           	opt callstack 0
   290  000002                     Servo_Tres_30@i:
   291                           	opt callstack 0
   292  000002                     Servo_Tres_45@i:
   293                           	opt callstack 0
   294  000002                     Servo_Tres_60@i:
   295                           	opt callstack 0
   296  000002                     Servo_Tres_75@i:
   297                           	opt callstack 0
   298  000002                     Servo_Tres_90@i:
   299                           	opt callstack 0
   300  000002                     Servo_Tres_105@i:
   301                           	opt callstack 0
   302  000002                     Servo_Tres_120@i:
   303                           	opt callstack 0
   304  000002                     Servo_Tres_135@i:
   305                           	opt callstack 0
   306  000002                     Servo_Tres_150@i:
   307                           	opt callstack 0
   308  000002                     Servo_Cuatro_0@i:
   309                           	opt callstack 0
   310  000002                     Servo_Cuatro_15@i:
   311                           	opt callstack 0
   312  000002                     Servo_Cuatro_30@i:
   313                           	opt callstack 0
   314  000002                     Servo_Cuatro_45@i:
   315                           	opt callstack 0
   316  000002                     Servo_Cuatro_60@i:
   317                           	opt callstack 0
   318  000002                     Servo_Cuatro_75@i:
   319                           	opt callstack 0
   320  000002                     Servo_Cuatro_90@i:
   321                           	opt callstack 0
   322  000002                     Servo_Cuatro_105@i:
   323                           	opt callstack 0
   324  000002                     Servo_Cuatro_120@i:
   325                           	opt callstack 0
   326  000002                     Servo_Cuatro_135@i:
   327                           	opt callstack 0
   328  000002                     Servo_Cuatro_150@i:
   329                           	opt callstack 0
   330  000002                     Servo_Cinco_0@i:
   331                           	opt callstack 0
   332  000002                     Servo_Cinco_15@i:
   333                           	opt callstack 0
   334  000002                     Servo_Cinco_30@i:
   335                           	opt callstack 0
   336  000002                     Servo_Cinco_45@i:
   337                           	opt callstack 0
   338  000002                     Servo_Cinco_60@i:
   339                           	opt callstack 0
   340  000002                     Servo_Seis_0@i:
   341                           	opt callstack 0
   342  000002                     Servo_Seis_15@i:
   343                           	opt callstack 0
   344  000002                     Servo_Seis_30@i:
   345                           	opt callstack 0
   346  000002                     Servo_Seis_45@i:
   347                           	opt callstack 0
   348  000002                     Servo_Seis_60@i:
   349                           	opt callstack 0
   350  000002                     UART0_Tx_String@str:
   351                           	opt callstack 0
   352                           
   353                           ; 2 bytes @ 0x1
   354  000002                     	ds	2
   355  000004                     ??_main:
   356                           
   357                           ; 1 bytes @ 0x3
   358  000004                     	ds	2
   359                           
   360 ;;
   361 ;;Main: autosize = 0, tempsize = 2, incstack = 0, save=0
   362 ;;
   363 ;; *************** function _main *****************
   364 ;; Defined at:
   365 ;;		line 11 in file "Principal.c"
   366 ;; Parameters:    Size  Location     Type
   367 ;;		None
   368 ;; Auto vars:     Size  Location     Type
   369 ;;		None
   370 ;; Return value:  Size  Location     Type
   371 ;;                  1    wreg      void 
   372 ;; Registers used:
   373 ;;		wreg, fsr0l, fsr0h, status,2, status,0, tblptrl, tblptrh, tblptru, cstack
   374 ;; Tracked objects:
   375 ;;		On entry : 0/0
   376 ;;		On exit  : 0/0
   377 ;;		Unchanged: 0/0
   378 ;; Data sizes:     COMRAM   BANK0   BANK1   BANK2   BANK3   BANK4   BANK5   BANK6   BANK7
   379 ;;      Params:         0       0       0       0       0       0       0       0       0
   380 ;;      Locals:         0       0       0       0       0       0       0       0       0
   381 ;;      Temps:          2       0       0       0       0       0       0       0       0
   382 ;;      Totals:         2       0       0       0       0       0       0       0       0
   383 ;;Total ram usage:        2 bytes
   384 ;; Hardware stack levels required when called:    3
   385 ;; This function calls:
   386 ;;		_Inicializacion
   387 ;;		_Interrupciones_Usart
   388 ;;		_Rx
   389 ;;		_Servos_150_120
   390 ;;		_Servos_150_150
   391 ;;		_Servos_150_30
   392 ;;		_Servos_150_60
   393 ;;		_Servos_150_90
   394 ;;		_Servos_60_30_Lento
   395 ;;		_Servos_60_30_Rapido
   396 ;;		_Servos_60_60_Lento
   397 ;;		_Servos_60_60_Rapido
   398 ;;		_Servos_90_30_Lento
   399 ;;		_Servos_90_30_Rapido
   400 ;;		_Servos_90_60_Lento
   401 ;;		_Servos_90_90_Lento
   402 ;;		_Servos_90_90_Rapido
   403 ;;		_UART0_Tx_String
   404 ;; This function is called by:
   405 ;;		Startup code after reset
   406 ;; This function uses a non-reentrant model
   407 ;;
   408                           
   409                           	psect	text0
   410  000820                     __ptext0:
   411                           	opt callstack 0
   412  000820                     _main:
   413                           	opt callstack 28
   414  000820                     
   415                           ;Principal.c: 12:     Inicializacion();
   416  000820  EC16  F00E         	call	_Inicializacion	;wreg free
   417                           
   418                           ;Principal.c: 13:     Interrupciones_Usart(1);
   419  000824  0E01               	movlw	1
   420  000826  ECCE  F00D         	call	_Interrupciones_Usart
   421  00082A                     
   422                           ;Principal.c: 14:     UART0_Tx_String("GOLA");
   423  00082A  0E1A               	movlw	low STR_1
   424  00082C  6E02               	movwf	UART0_Tx_String@str^0,c
   425  00082E  0E08               	movlw	high STR_1
   426  000830  6E03               	movwf	(UART0_Tx_String@str+1)^0,c
   427  000832  ECEC  F005         	call	_UART0_Tx_String	;wreg free
   428  000836                     l2477:
   429                           
   430                           ;Principal.c: 16:         if(PIR1bits.RCIF==1) {
   431  000836  AA9E               	btfss	158,5,c	;volatile
   432  000838  EF20  F004         	goto	u911
   433  00083C  EF22  F004         	goto	u910
   434  000840                     u911:
   435  000840  EF1B  F004         	goto	l2477
   436  000844                     u910:
   437  000844                     
   438                           ;Principal.c: 17:             PIR1bits.RCIF=0;
   439  000844  9A9E               	bcf	158,5,c	;volatile
   440  000846                     
   441                           ;Principal.c: 18:             Mensaje=Rx();
   442  000846  EC3B  F00E         	call	_Rx	;wreg free
   443  00084A  6E07               	movwf	_Mensaje^0,c
   444                           
   445                           ;Principal.c: 19:             switch (Mensaje){
   446  00084C  EF68  F004         	goto	l2517
   447  000850                     l2483:
   448                           
   449                           ;Principal.c: 21:                     Servos_150_30();
   450  000850  EC27  F00C         	call	_Servos_150_30	;wreg free
   451                           
   452                           ;Principal.c: 22:                     break;
   453  000854  EF1B  F004         	goto	l2477
   454  000858                     l2485:
   455                           
   456                           ;Principal.c: 24:                     Servos_150_60();
   457  000858  ECB7  F005         	call	_Servos_150_60	;wreg free
   458                           
   459                           ;Principal.c: 25:                     break;
   460  00085C  EF1B  F004         	goto	l2477
   461  000860                     l2487:
   462                           
   463                           ;Principal.c: 27:                     Servos_150_90();
   464  000860  EC82  F005         	call	_Servos_150_90	;wreg free
   465                           
   466                           ;Principal.c: 28:                     break;
   467  000864  EF1B  F004         	goto	l2477
   468  000868                     l2489:
   469                           
   470                           ;Principal.c: 30:                     Servos_150_120();
   471  000868  EC08  F005         	call	_Servos_150_120	;wreg free
   472                           
   473                           ;Principal.c: 31:                     break;
   474  00086C  EF1B  F004         	goto	l2477
   475  000870                     l2491:
   476                           
   477                           ;Principal.c: 33:                     Servos_150_150();
   478  000870  ECB3  F004         	call	_Servos_150_150	;wreg free
   479                           
   480                           ;Principal.c: 34:                     break;
   481  000874  EF1B  F004         	goto	l2477
   482  000878                     l2493:
   483                           
   484                           ;Principal.c: 36:                     Servos_60_30_Lento();
   485  000878  EC8B  F00D         	call	_Servos_60_30_Lento	;wreg free
   486                           
   487                           ;Principal.c: 37:                     break;
   488  00087C  EF1B  F004         	goto	l2477
   489  000880                     l2495:
   490                           
   491                           ;Principal.c: 39:                     Servos_60_60_Lento();
   492  000880  ECB8  F00B         	call	_Servos_60_60_Lento	;wreg free
   493                           
   494                           ;Principal.c: 40:                     break;
   495  000884  EF1B  F004         	goto	l2477
   496  000888                     l2497:
   497                           
   498                           ;Principal.c: 42:                     Servos_60_30_Rapido();
   499  000888  ECEF  F00D         	call	_Servos_60_30_Rapido	;wreg free
   500                           
   501                           ;Principal.c: 43:                     break;
   502  00088C  EF1B  F004         	goto	l2477
   503  000890                     l2499:
   504                           
   505                           ;Principal.c: 45:                     Servos_60_60_Rapido();
   506  000890  ECB9  F00D         	call	_Servos_60_60_Rapido	;wreg free
   507                           
   508                           ;Principal.c: 46:                     break;
   509  000894  EF1B  F004         	goto	l2477
   510  000898                     l2501:
   511                           
   512                           ;Principal.c: 48:                     Servos_90_30_Lento();
   513  000898  ECA4  F00D         	call	_Servos_90_30_Lento	;wreg free
   514                           
   515                           ;Principal.c: 49:                     break;
   516  00089C  EF1B  F004         	goto	l2477
   517  0008A0                     l2503:
   518                           
   519                           ;Principal.c: 51:                     Servos_90_60_Lento();
   520  0008A0  EC49  F00B         	call	_Servos_90_60_Lento	;wreg free
   521                           
   522                           ;Principal.c: 52:                     break;
   523  0008A4  EF1B  F004         	goto	l2477
   524  0008A8                     l2505:
   525                           
   526                           ;Principal.c: 54:                     Servos_90_90_Lento();
   527  0008A8  EC4D  F005         	call	_Servos_90_90_Lento	;wreg free
   528                           
   529                           ;Principal.c: 55:                     break;
   530  0008AC  EF1B  F004         	goto	l2477
   531  0008B0                     l2507:
   532                           
   533                           ;Principal.c: 57:                     Servos_90_30_Rapido();
   534  0008B0  ECE2  F00D         	call	_Servos_90_30_Rapido	;wreg free
   535                           
   536                           ;Principal.c: 58:                     break;
   537  0008B4  EF1B  F004         	goto	l2477
   538  0008B8                     l2509:
   539                           
   540                           ;Principal.c: 60:                     Servos_90_90_Rapido();
   541  0008B8  EC6E  F00D         	call	_Servos_90_90_Rapido	;wreg free
   542                           
   543                           ;Principal.c: 61:                     break;
   544  0008BC  EF1B  F004         	goto	l2477
   545  0008C0                     l2513:
   546                           
   547                           ;Principal.c: 66:                     UART0_Tx_String("Error, Ángulo erroneo \r\n");
   548  0008C0  0E01               	movlw	low STR_2
   549  0008C2  6E02               	movwf	UART0_Tx_String@str^0,c
   550  0008C4  0E08               	movlw	high STR_2
   551  0008C6  6E03               	movwf	(UART0_Tx_String@str+1)^0,c
   552  0008C8  ECEC  F005         	call	_UART0_Tx_String	;wreg free
   553                           
   554                           ;Principal.c: 67:                     break;
   555  0008CC  EF1B  F004         	goto	l2477
   556  0008D0                     l2517:
   557  0008D0  5007               	movf	_Mensaje^0,w,c
   558  0008D2  6E04               	movwf	??_main^0,c
   559  0008D4  6A05               	clrf	(??_main+1)^0,c
   560                           
   561                           ; Switch on 2 bytes has been partitioned into a top level switch of size 1, and 1 sub-sw
      +                          itches
   562                           ; Switch size 1, requested type "simple"
   563                           ; Number of cases is 1, Range of values is 0 to 0
   564                           ; switch strategies available:
   565                           ; Name         Instructions Cycles
   566                           ; simple_byte            4     3 (average)
   567                           ;	Chosen strategy is simple_byte
   568  0008D6  5005               	movf	(??_main+1)^0,w,c
   569  0008D8  0A00               	xorlw	0	; case 0
   570  0008DA  B4D8               	btfsc	status,2,c
   571  0008DC  EF72  F004         	goto	l2557
   572  0008E0  EF60  F004         	goto	l2513
   573  0008E4                     l2557:
   574                           
   575                           ; Switch size 1, requested type "simple"
   576                           ; Number of cases is 15, Range of values is 49 to 90
   577                           ; switch strategies available:
   578                           ; Name         Instructions Cycles
   579                           ; simple_byte           46    24 (average)
   580                           ;	Chosen strategy is simple_byte
   581  0008E4  5004               	movf	??_main^0,w,c
   582  0008E6  0A31               	xorlw	49	; case 49
   583  0008E8  B4D8               	btfsc	status,2,c
   584  0008EA  EF3C  F004         	goto	l2493
   585  0008EE  0A03               	xorlw	3	; case 50
   586  0008F0  B4D8               	btfsc	status,2,c
   587  0008F2  EF40  F004         	goto	l2495
   588  0008F6  0A01               	xorlw	1	; case 51
   589  0008F8  B4D8               	btfsc	status,2,c
   590  0008FA  EF44  F004         	goto	l2497
   591  0008FE  0A07               	xorlw	7	; case 52
   592  000900  B4D8               	btfsc	status,2,c
   593  000902  EF48  F004         	goto	l2499
   594  000906  0A75               	xorlw	117	; case 65
   595  000908  B4D8               	btfsc	status,2,c
   596  00090A  EF28  F004         	goto	l2483
   597  00090E  0A03               	xorlw	3	; case 66
   598  000910  B4D8               	btfsc	status,2,c
   599  000912  EF2C  F004         	goto	l2485
   600  000916  0A01               	xorlw	1	; case 67
   601  000918  B4D8               	btfsc	status,2,c
   602  00091A  EF30  F004         	goto	l2487
   603  00091E  0A07               	xorlw	7	; case 68
   604  000920  B4D8               	btfsc	status,2,c
   605  000922  EF34  F004         	goto	l2489
   606  000926  0A01               	xorlw	1	; case 69
   607  000928  B4D8               	btfsc	status,2,c
   608  00092A  EF38  F004         	goto	l2491
   609  00092E  0A10               	xorlw	16	; case 85
   610  000930  B4D8               	btfsc	status,2,c
   611  000932  EF5C  F004         	goto	l2509
   612  000936  0A03               	xorlw	3	; case 86
   613  000938  B4D8               	btfsc	status,2,c
   614  00093A  EF5C  F004         	goto	l2509
   615  00093E  0A01               	xorlw	1	; case 87
   616  000940  B4D8               	btfsc	status,2,c
   617  000942  EF58  F004         	goto	l2507
   618  000946  0A0F               	xorlw	15	; case 88
   619  000948  B4D8               	btfsc	status,2,c
   620  00094A  EF54  F004         	goto	l2505
   621  00094E  0A01               	xorlw	1	; case 89
   622  000950  B4D8               	btfsc	status,2,c
   623  000952  EF50  F004         	goto	l2503
   624  000956  0A03               	xorlw	3	; case 90
   625  000958  B4D8               	btfsc	status,2,c
   626  00095A  EF4C  F004         	goto	l2501
   627  00095E  EF60  F004         	goto	l2513
   628  000962  EF00  F000         	goto	start
   629  000966                     __end_of_main:
   630                           	opt callstack 0
   631                           
   632 ;; *************** function _UART0_Tx_String *****************
   633 ;; Defined at:
   634 ;;		line 65 in file "Usart.c"
   635 ;; Parameters:    Size  Location     Type
   636 ;;  str             2    1[COMRAM] PTR unsigned char 
   637 ;;		 -> UART0_Tx_Integer@signo_y_digitos(12), STR_2(25), STR_1(5), 
   638 ;; Auto vars:     Size  Location     Type
   639 ;;		None
   640 ;; Return value:  Size  Location     Type
   641 ;;                  1    wreg      void 
   642 ;; Registers used:
   643 ;;		wreg, fsr0l, fsr0h, status,2, status,0, tblptrl, tblptrh, tblptru, cstack
   644 ;; Tracked objects:
   645 ;;		On entry : 0/0
   646 ;;		On exit  : 0/0
   647 ;;		Unchanged: 0/0
   648 ;; Data sizes:     COMRAM   BANK0   BANK1   BANK2   BANK3   BANK4   BANK5   BANK6   BANK7
   649 ;;      Params:         2       0       0       0       0       0       0       0       0
   650 ;;      Locals:         0       0       0       0       0       0       0       0       0
   651 ;;      Temps:          0       0       0       0       0       0       0       0       0
   652 ;;      Totals:         2       0       0       0       0       0       0       0       0
   653 ;;Total ram usage:        2 bytes
   654 ;; Hardware stack levels used:    1
   655 ;; Hardware stack levels required when called:    1
   656 ;; This function calls:
   657 ;;		_Tx_str
   658 ;; This function is called by:
   659 ;;		_main
   660 ;;		_UART0_Tx_Integer
   661 ;; This function uses a non-reentrant model
   662 ;;
   663                           
   664                           	psect	text1
   665  000BD8                     __ptext1:
   666                           	opt callstack 0
   667  000BD8                     _UART0_Tx_String:
   668                           	opt callstack 29
   669  000BD8                     
   670                           ;Usart.c: 68:  while(*str != '\0'){
   671  000BD8  EF02  F006         	goto	l2471
   672  000BDC                     l2467:
   673                           
   674                           ;Usart.c: 70:   Tx_str(*str);
   675  000BDC  C002  FFF6         	movff	UART0_Tx_String@str,tblptrl
   676  000BE0  C003  FFF7         	movff	UART0_Tx_String@str+1,tblptrh
   677  000BE4  6AF8               	clrf	tblptru,c
   678  000BE6  0E07               	movlw	(high __ramtop+-1)
   679  000BE8  64F7               	cpfsgt	tblptrh,c
   680  000BEA  D003               	bra	u887
   681  000BEC  0008               	tblrd		*
   682  000BEE  50F5               	movf	tablat,w,c
   683  000BF0  D005               	bra	u880
   684  000BF2                     u887:
   685  000BF2  CFF6 FFE9          	movff	tblptrl,fsr0l
   686  000BF6  CFF7 FFEA          	movff	tblptrh,fsr0h
   687  000BFA  50EF               	movf	indf0,w,c
   688  000BFC                     u880:
   689  000BFC  EC22  F00E         	call	_Tx_str
   690  000C00                     
   691                           ;Usart.c: 73:   str++;
   692  000C00  4A02               	infsnz	UART0_Tx_String@str^0,f,c
   693  000C02  2A03               	incf	(UART0_Tx_String@str+1)^0,f,c
   694  000C04                     l2471:
   695                           
   696                           ;Usart.c: 68:  while(*str != '\0'){
   697  000C04  C002  FFF6         	movff	UART0_Tx_String@str,tblptrl
   698  000C08  C003  FFF7         	movff	UART0_Tx_String@str+1,tblptrh
   699  000C0C  6AF8               	clrf	tblptru,c
   700  000C0E  0E07               	movlw	(high __ramtop+-1)
   701  000C10  64F7               	cpfsgt	tblptrh,c
   702  000C12  D003               	bra	u897
   703  000C14  0008               	tblrd		*
   704  000C16  50F5               	movf	tablat,w,c
   705  000C18  D005               	bra	u890
   706  000C1A                     u897:
   707  000C1A  CFF6 FFE9          	movff	tblptrl,fsr0l
   708  000C1E  CFF7 FFEA          	movff	tblptrh,fsr0h
   709  000C22  50EF               	movf	indf0,w,c
   710  000C24                     u890:
   711  000C24  0900               	iorlw	0
   712  000C26  A4D8               	btfss	status,2,c
   713  000C28  EF18  F006         	goto	u901
   714  000C2C  EF1A  F006         	goto	u900
   715  000C30                     u901:
   716  000C30  EFEE  F005         	goto	l2467
   717  000C34                     u900:
   718  000C34  0012               	return		;funcret
   719  000C36                     __end_of_UART0_Tx_String:
   720                           	opt callstack 0
   721                           
   722 ;; *************** function _Tx_str *****************
   723 ;; Defined at:
   724 ;;		line 46 in file "Usart.c"
   725 ;; Parameters:    Size  Location     Type
   726 ;;  data            1    wreg     unsigned char 
   727 ;; Auto vars:     Size  Location     Type
   728 ;;  data            1    0[COMRAM] unsigned char 
   729 ;; Return value:  Size  Location     Type
   730 ;;                  1    wreg      void 
   731 ;; Registers used:
   732 ;;		wreg
   733 ;; Tracked objects:
   734 ;;		On entry : 0/0
   735 ;;		On exit  : 0/0
   736 ;;		Unchanged: 0/0
   737 ;; Data sizes:     COMRAM   BANK0   BANK1   BANK2   BANK3   BANK4   BANK5   BANK6   BANK7
   738 ;;      Params:         0       0       0       0       0       0       0       0       0
   739 ;;      Locals:         1       0       0       0       0       0       0       0       0
   740 ;;      Temps:          0       0       0       0       0       0       0       0       0
   741 ;;      Totals:         1       0       0       0       0       0       0       0       0
   742 ;;Total ram usage:        1 bytes
   743 ;; Hardware stack levels used:    1
   744 ;; This function calls:
   745 ;;		Nothing
   746 ;; This function is called by:
   747 ;;		_UART0_Tx_String
   748 ;; This function uses a non-reentrant model
   749 ;;
   750                           
   751                           	psect	text2
   752  001C44                     __ptext2:
   753                           	opt callstack 0
   754  001C44                     _Tx_str:
   755                           	opt callstack 29
   756                           
   757                           ;incstack = 0
   758                           ;Tx_str@data stored from wreg
   759  001C44  6E01               	movwf	Tx_str@data^0,c
   760  001C46                     l652:
   761  001C46  A2AC               	btfss	172,1,c	;volatile
   762  001C48  EF28  F00E         	goto	u471
   763  001C4C  EF2A  F00E         	goto	u470
   764  001C50                     u471:
   765  001C50  EF23  F00E         	goto	l652
   766  001C54                     u470:
   767  001C54                     
   768                           ;Usart.c: 48:     TXREG = data;
   769  001C54  C001  FFAD         	movff	Tx_str@data,4013	;volatile
   770  001C58  0012               	return		;funcret
   771  001C5A                     __end_of_Tx_str:
   772                           	opt callstack 0
   773                           
   774 ;; *************** function _Servos_90_90_Rapido *****************
   775 ;; Defined at:
   776 ;;		line 162 in file "Confi.c"
   777 ;; Parameters:    Size  Location     Type
   778 ;;		None
   779 ;; Auto vars:     Size  Location     Type
   780 ;;		None
   781 ;; Return value:  Size  Location     Type
   782 ;;                  1    wreg      void 
   783 ;; Registers used:
   784 ;;		wreg, status,2, status,0, cstack
   785 ;; Tracked objects:
   786 ;;		On entry : 0/0
   787 ;;		On exit  : 0/0
   788 ;;		Unchanged: 0/0
   789 ;; Data sizes:     COMRAM   BANK0   BANK1   BANK2   BANK3   BANK4   BANK5   BANK6   BANK7
   790 ;;      Params:         0       0       0       0       0       0       0       0       0
   791 ;;      Locals:         0       0       0       0       0       0       0       0       0
   792 ;;      Temps:          0       0       0       0       0       0       0       0       0
   793 ;;      Totals:         0       0       0       0       0       0       0       0       0
   794 ;;Total ram usage:        0 bytes
   795 ;; Hardware stack levels used:    1
   796 ;; Hardware stack levels required when called:    1
   797 ;; This function calls:
   798 ;;		_Servo_Dos_0
   799 ;;		_Servo_Dos_30
   800 ;;		_Servo_Dos_60
   801 ;;		_Servo_Dos_90
   802 ;;		_Servo_Uno_0
   803 ;;		_Servo_Uno_30
   804 ;;		_Servo_Uno_60
   805 ;;		_Servo_Uno_90
   806 ;; This function is called by:
   807 ;;		_main
   808 ;; This function uses a non-reentrant model
   809 ;;
   810                           
   811                           	psect	text3
   812  001ADC                     __ptext3:
   813                           	opt callstack 0
   814  001ADC                     _Servos_90_90_Rapido:
   815                           	opt callstack 29
   816  001ADC                     
   817                           ;Confi.c: 163:         Servo_Uno_0(); Servo_Dos_0();
   818  001ADC  ECDE  F00C         	call	_Servo_Uno_0	;wreg free
   819  001AE0  EC26  F00D         	call	_Servo_Dos_0	;wreg free
   820                           
   821                           ;Confi.c: 164:         Servo_Uno_30(); Servo_Dos_30();
   822  001AE4  EC6E  F00B         	call	_Servo_Uno_30	;wreg free
   823  001AE8  EC93  F00B         	call	_Servo_Dos_30	;wreg free
   824                           
   825                           ;Confi.c: 165:         Servo_Uno_60(); Servo_Dos_60();
   826  001AEC  EC59  F007         	call	_Servo_Uno_60	;wreg free
   827  001AF0  ECA7  F007         	call	_Servo_Dos_60	;wreg free
   828                           
   829                           ;Confi.c: 166:         Servo_Uno_90(); Servo_Dos_90();
   830  001AF4  EC0B  F007         	call	_Servo_Uno_90	;wreg free
   831  001AF8  EC32  F007         	call	_Servo_Dos_90	;wreg free
   832                           
   833                           ;Confi.c: 167:         Servo_Uno_60(); Servo_Dos_60();
   834  001AFC  EC59  F007         	call	_Servo_Uno_60	;wreg free
   835  001B00  ECA7  F007         	call	_Servo_Dos_60	;wreg free
   836                           
   837                           ;Confi.c: 168:         Servo_Uno_30(); Servo_Dos_30();
   838  001B04  EC6E  F00B         	call	_Servo_Uno_30	;wreg free
   839  001B08  EC93  F00B         	call	_Servo_Dos_30	;wreg free
   840                           
   841                           ;Confi.c: 169:         Servo_Uno_0(); Servo_Dos_0();
   842  001B0C  ECDE  F00C         	call	_Servo_Uno_0	;wreg free
   843  001B10  EC26  F00D         	call	_Servo_Dos_0	;wreg free
   844  001B14  0012               	return		;funcret
   845  001B16                     __end_of_Servos_90_90_Rapido:
   846                           	opt callstack 0
   847                           
   848 ;; *************** function _Servos_90_90_Lento *****************
   849 ;; Defined at:
   850 ;;		line 192 in file "Confi.c"
   851 ;; Parameters:    Size  Location     Type
   852 ;;		None
   853 ;; Auto vars:     Size  Location     Type
   854 ;;		None
   855 ;; Return value:  Size  Location     Type
   856 ;;                  1    wreg      void 
   857 ;; Registers used:
   858 ;;		wreg, status,2, status,0, cstack
   859 ;; Tracked objects:
   860 ;;		On entry : 0/0
   861 ;;		On exit  : 0/0
   862 ;;		Unchanged: 0/0
   863 ;; Data sizes:     COMRAM   BANK0   BANK1   BANK2   BANK3   BANK4   BANK5   BANK6   BANK7
   864 ;;      Params:         0       0       0       0       0       0       0       0       0
   865 ;;      Locals:         0       0       0       0       0       0       0       0       0
   866 ;;      Temps:          0       0       0       0       0       0       0       0       0
   867 ;;      Totals:         0       0       0       0       0       0       0       0       0
   868 ;;Total ram usage:        0 bytes
   869 ;; Hardware stack levels used:    1
   870 ;; Hardware stack levels required when called:    1
   871 ;; This function calls:
   872 ;;		_Servo_Dos_0
   873 ;;		_Servo_Dos_15
   874 ;;		_Servo_Dos_30
   875 ;;		_Servo_Dos_45
   876 ;;		_Servo_Dos_60
   877 ;;		_Servo_Dos_75
   878 ;;		_Servo_Dos_90
   879 ;;		_Servo_Uno_0
   880 ;;		_Servo_Uno_15
   881 ;;		_Servo_Uno_30
   882 ;;		_Servo_Uno_45
   883 ;;		_Servo_Uno_60
   884 ;;		_Servo_Uno_75
   885 ;;		_Servo_Uno_90
   886 ;; This function is called by:
   887 ;;		_main
   888 ;; This function uses a non-reentrant model
   889 ;;
   890                           
   891                           	psect	text4
   892  000A9A                     __ptext4:
   893                           	opt callstack 0
   894  000A9A                     _Servos_90_90_Lento:
   895                           	opt callstack 29
   896  000A9A                     
   897                           ;Confi.c: 193:         Servo_Uno_0(); Servo_Dos_0();
   898  000A9A  ECDE  F00C         	call	_Servo_Uno_0	;wreg free
   899  000A9E  EC26  F00D         	call	_Servo_Dos_0	;wreg free
   900                           
   901                           ;Confi.c: 194:         Servo_Uno_15(); Servo_Dos_15();
   902  000AA2  EC65  F00A         	call	_Servo_Uno_15	;wreg free
   903  000AA6  EC8B  F00A         	call	_Servo_Dos_15	;wreg free
   904                           
   905                           ;Confi.c: 195:         Servo_Uno_30(); Servo_Dos_30();
   906  000AAA  EC6E  F00B         	call	_Servo_Uno_30	;wreg free
   907  000AAE  EC93  F00B         	call	_Servo_Dos_30	;wreg free
   908                           
   909                           ;Confi.c: 196:         Servo_Uno_45(); Servo_Dos_45();
   910  000AB2  EC80  F007         	call	_Servo_Uno_45	;wreg free
   911  000AB6  ECCE  F007         	call	_Servo_Dos_45	;wreg free
   912                           
   913                           ;Confi.c: 197:         Servo_Uno_60(); Servo_Dos_60();
   914  000ABA  EC59  F007         	call	_Servo_Uno_60	;wreg free
   915  000ABE  ECA7  F007         	call	_Servo_Dos_60	;wreg free
   916                           
   917                           ;Confi.c: 198:         Servo_Uno_75(); Servo_Dos_75();
   918  000AC2  EC1B  F006         	call	_Servo_Uno_75	;wreg free
   919  000AC6  EC43  F006         	call	_Servo_Dos_75	;wreg free
   920                           
   921                           ;Confi.c: 199:         Servo_Uno_90(); Servo_Dos_90();
   922  000ACA  EC0B  F007         	call	_Servo_Uno_90	;wreg free
   923  000ACE  EC32  F007         	call	_Servo_Dos_90	;wreg free
   924                           
   925                           ;Confi.c: 200:         Servo_Uno_75(); Servo_Dos_75();
   926  000AD2  EC1B  F006         	call	_Servo_Uno_75	;wreg free
   927  000AD6  EC43  F006         	call	_Servo_Dos_75	;wreg free
   928                           
   929                           ;Confi.c: 201:         Servo_Uno_60(); Servo_Dos_60();
   930  000ADA  EC59  F007         	call	_Servo_Uno_60	;wreg free
   931  000ADE  ECA7  F007         	call	_Servo_Dos_60	;wreg free
   932                           
   933                           ;Confi.c: 202:         Servo_Uno_45(); Servo_Dos_45();
   934  000AE2  EC80  F007         	call	_Servo_Uno_45	;wreg free
   935  000AE6  ECCE  F007         	call	_Servo_Dos_45	;wreg free
   936                           
   937                           ;Confi.c: 203:         Servo_Uno_30(); Servo_Dos_30();
   938  000AEA  EC6E  F00B         	call	_Servo_Uno_30	;wreg free
   939  000AEE  EC93  F00B         	call	_Servo_Dos_30	;wreg free
   940                           
   941                           ;Confi.c: 204:         Servo_Uno_15(); Servo_Dos_15();
   942  000AF2  EC65  F00A         	call	_Servo_Uno_15	;wreg free
   943  000AF6  EC8B  F00A         	call	_Servo_Dos_15	;wreg free
   944                           
   945                           ;Confi.c: 205:         Servo_Uno_0(); Servo_Dos_0();
   946  000AFA  ECDE  F00C         	call	_Servo_Uno_0	;wreg free
   947  000AFE  EC26  F00D         	call	_Servo_Dos_0	;wreg free
   948  000B02  0012               	return		;funcret
   949  000B04                     __end_of_Servos_90_90_Lento:
   950                           	opt callstack 0
   951                           
   952 ;; *************** function _Servo_Uno_90 *****************
   953 ;; Defined at:
   954 ;;		line 71 in file "Servo.c"
   955 ;; Parameters:    Size  Location     Type
   956 ;;		None
   957 ;; Auto vars:     Size  Location     Type
   958 ;;  i               2    1[COMRAM] int 
   959 ;; Return value:  Size  Location     Type
   960 ;;                  1    wreg      void 
   961 ;; Registers used:
   962 ;;		wreg, status,2, status,0
   963 ;; Tracked objects:
   964 ;;		On entry : 0/0
   965 ;;		On exit  : 0/0
   966 ;;		Unchanged: 0/0
   967 ;; Data sizes:     COMRAM   BANK0   BANK1   BANK2   BANK3   BANK4   BANK5   BANK6   BANK7
   968 ;;      Params:         0       0       0       0       0       0       0       0       0
   969 ;;      Locals:         2       0       0       0       0       0       0       0       0
   970 ;;      Temps:          1       0       0       0       0       0       0       0       0
   971 ;;      Totals:         3       0       0       0       0       0       0       0       0
   972 ;;Total ram usage:        3 bytes
   973 ;; Hardware stack levels used:    1
   974 ;; This function calls:
   975 ;;		Nothing
   976 ;; This function is called by:
   977 ;;		_Servos_90_90_Rapido
   978 ;;		_Servos_90_90_Lento
   979 ;; This function uses a non-reentrant model
   980 ;;
   981                           
   982                           	psect	text5
   983  000E16                     __ptext5:
   984                           	opt callstack 0
   985  000E16                     _Servo_Uno_90:
   986                           	opt callstack 29
   987  000E16                     
   988                           ;Servo.c: 72:              for(int i=0;i<16;i++){
   989  000E16  0E00               	movlw	0
   990  000E18  6E03               	movwf	(Servo_Uno_90@i+1)^0,c
   991  000E1A  0E00               	movlw	0
   992  000E1C  6E02               	movwf	Servo_Uno_90@i^0,c
   993  000E1E                     l194:
   994                           
   995                           ;Servo.c: 73:             LATBbits.LATB0=0;
   996  000E1E  908A               	bcf	138,0,c	;volatile
   997                           
   998                           ;Servo.c: 74:             LATBbits.LATB0=1;
   999  000E20  808A               	bsf	138,0,c	;volatile
  1000  000E22                     
  1001                           ;Servo.c: 75:             _delay((unsigned long)((1.500)*(8000000/4000.0)));
  1002  000E22  0E04               	movlw	4
  1003  000E24  6E01               	movwf	??_Servo_Uno_90^0,c
  1004  000E26  0EE4               	movlw	228
  1005  000E28                     u957:
  1006  000E28  2EE8               	decfsz	wreg,f,c
  1007  000E2A  D7FE               	bra	u957
  1008  000E2C  2E01               	decfsz	??_Servo_Uno_90^0,f,c
  1009  000E2E  D7FC               	bra	u957
  1010  000E30  D000               	nop2	
  1011  000E32                     
  1012                           ;Servo.c: 76:             LATBbits.LATB0=0;
  1013  000E32  908A               	bcf	138,0,c	;volatile
  1014                           
  1015                           ;Servo.c: 77:             _delay((unsigned long)((20-1.500)*(8000000/4000.0)));}
  1016  000E34  0E31               	movlw	49
  1017  000E36  6E01               	movwf	??_Servo_Uno_90^0,c
  1018  000E38  0E0C               	movlw	12
  1019  000E3A                     u967:
  1020  000E3A  2EE8               	decfsz	wreg,f,c
  1021  000E3C  D7FE               	bra	u967
  1022  000E3E  2E01               	decfsz	??_Servo_Uno_90^0,f,c
  1023  000E40  D7FC               	bra	u967
  1024  000E42  4A02               	infsnz	Servo_Uno_90@i^0,f,c
  1025  000E44  2A03               	incf	(Servo_Uno_90@i+1)^0,f,c
  1026  000E46  BE03               	btfsc	(Servo_Uno_90@i+1)^0,7,c
  1027  000E48  EF2F  F007         	goto	u391
  1028  000E4C  5003               	movf	(Servo_Uno_90@i+1)^0,w,c
  1029  000E4E  E109               	bnz	u390
  1030  000E50  0E10               	movlw	16
  1031  000E52  5C02               	subwf	Servo_Uno_90@i^0,w,c
  1032  000E54  A0D8               	btfss	status,0,c
  1033  000E56  EF2F  F007         	goto	u391
  1034  000E5A  EF31  F007         	goto	u390
  1035  000E5E                     u391:
  1036  000E5E  EF0F  F007         	goto	l194
  1037  000E62                     u390:
  1038  000E62  0012               	return		;funcret
  1039  000E64                     __end_of_Servo_Uno_90:
  1040                           	opt callstack 0
  1041                           
  1042 ;; *************** function _Servo_Uno_75 *****************
  1043 ;; Defined at:
  1044 ;;		line 62 in file "Servo.c"
  1045 ;; Parameters:    Size  Location     Type
  1046 ;;		None
  1047 ;; Auto vars:     Size  Location     Type
  1048 ;;  i               2    1[COMRAM] int 
  1049 ;; Return value:  Size  Location     Type
  1050 ;;                  1    wreg      void 
  1051 ;; Registers used:
  1052 ;;		wreg, status,2, status,0
  1053 ;; Tracked objects:
  1054 ;;		On entry : 0/0
  1055 ;;		On exit  : 0/0
  1056 ;;		Unchanged: 0/0
  1057 ;; Data sizes:     COMRAM   BANK0   BANK1   BANK2   BANK3   BANK4   BANK5   BANK6   BANK7
  1058 ;;      Params:         0       0       0       0       0       0       0       0       0
  1059 ;;      Locals:         2       0       0       0       0       0       0       0       0
  1060 ;;      Temps:          1       0       0       0       0       0       0       0       0
  1061 ;;      Totals:         3       0       0       0       0       0       0       0       0
  1062 ;;Total ram usage:        3 bytes
  1063 ;; Hardware stack levels used:    1
  1064 ;; This function calls:
  1065 ;;		Nothing
  1066 ;; This function is called by:
  1067 ;;		_Servos_90_90_Lento
  1068 ;; This function uses a non-reentrant model
  1069 ;;
  1070                           
  1071                           	psect	text6
  1072  000C36                     __ptext6:
  1073                           	opt callstack 0
  1074  000C36                     _Servo_Uno_75:
  1075                           	opt callstack 29
  1076  000C36                     
  1077                           ;Servo.c: 63:              for(int i=0;i<16;i++){
  1078  000C36  0E00               	movlw	0
  1079  000C38  6E03               	movwf	(Servo_Uno_75@i+1)^0,c
  1080  000C3A  0E00               	movlw	0
  1081  000C3C  6E02               	movwf	Servo_Uno_75@i^0,c
  1082  000C3E                     l189:
  1083                           
  1084                           ;Servo.c: 64:             LATBbits.LATB0=0;
  1085  000C3E  908A               	bcf	138,0,c	;volatile
  1086                           
  1087                           ;Servo.c: 65:             LATBbits.LATB0=1;
  1088  000C40  808A               	bsf	138,0,c	;volatile
  1089  000C42                     
  1090                           ;Servo.c: 66:             _delay((unsigned long)((1.300)*(8000000/4000.0)));
  1091  000C42  0E04               	movlw	4
  1092  000C44  6E01               	movwf	??_Servo_Uno_75^0,c
  1093  000C46  0E5F               	movlw	95
  1094  000C48                     u977:
  1095  000C48  2EE8               	decfsz	wreg,f,c
  1096  000C4A  D7FE               	bra	u977
  1097  000C4C  2E01               	decfsz	??_Servo_Uno_75^0,f,c
  1098  000C4E  D7FC               	bra	u977
  1099  000C50  F000               	nop	
  1100  000C52                     
  1101                           ;Servo.c: 67:             LATBbits.LATB0=0;
  1102  000C52  908A               	bcf	138,0,c	;volatile
  1103                           
  1104                           ;Servo.c: 68:             _delay((unsigned long)((20-1.300)*(8000000/4000.0)));}
  1105  000C54  0E31               	movlw	49
  1106  000C56  6E01               	movwf	??_Servo_Uno_75^0,c
  1107  000C58  0E91               	movlw	145
  1108  000C5A                     u987:
  1109  000C5A  2EE8               	decfsz	wreg,f,c
  1110  000C5C  D7FE               	bra	u987
  1111  000C5E  2E01               	decfsz	??_Servo_Uno_75^0,f,c
  1112  000C60  D7FC               	bra	u987
  1113  000C62  F000               	nop	
  1114  000C64  4A02               	infsnz	Servo_Uno_75@i^0,f,c
  1115  000C66  2A03               	incf	(Servo_Uno_75@i+1)^0,f,c
  1116  000C68  BE03               	btfsc	(Servo_Uno_75@i+1)^0,7,c
  1117  000C6A  EF40  F006         	goto	u451
  1118  000C6E  5003               	movf	(Servo_Uno_75@i+1)^0,w,c
  1119  000C70  E109               	bnz	u450
  1120  000C72  0E10               	movlw	16
  1121  000C74  5C02               	subwf	Servo_Uno_75@i^0,w,c
  1122  000C76  A0D8               	btfss	status,0,c
  1123  000C78  EF40  F006         	goto	u451
  1124  000C7C  EF42  F006         	goto	u450
  1125  000C80                     u451:
  1126  000C80  EF1F  F006         	goto	l189
  1127  000C84                     u450:
  1128  000C84  0012               	return		;funcret
  1129  000C86                     __end_of_Servo_Uno_75:
  1130                           	opt callstack 0
  1131                           
  1132 ;; *************** function _Servo_Dos_90 *****************
  1133 ;; Defined at:
  1134 ;;		line 190 in file "Servo.c"
  1135 ;; Parameters:    Size  Location     Type
  1136 ;;		None
  1137 ;; Auto vars:     Size  Location     Type
  1138 ;;  i               2    1[COMRAM] int 
  1139 ;; Return value:  Size  Location     Type
  1140 ;;                  1    wreg      void 
  1141 ;; Registers used:
  1142 ;;		wreg, status,2, status,0
  1143 ;; Tracked objects:
  1144 ;;		On entry : 0/0
  1145 ;;		On exit  : 0/0
  1146 ;;		Unchanged: 0/0
  1147 ;; Data sizes:     COMRAM   BANK0   BANK1   BANK2   BANK3   BANK4   BANK5   BANK6   BANK7
  1148 ;;      Params:         0       0       0       0       0       0       0       0       0
  1149 ;;      Locals:         2       0       0       0       0       0       0       0       0
  1150 ;;      Temps:          1       0       0       0       0       0       0       0       0
  1151 ;;      Totals:         3       0       0       0       0       0       0       0       0
  1152 ;;Total ram usage:        3 bytes
  1153 ;; Hardware stack levels used:    1
  1154 ;; This function calls:
  1155 ;;		Nothing
  1156 ;; This function is called by:
  1157 ;;		_Servos_90_90_Rapido
  1158 ;;		_Servos_90_90_Lento
  1159 ;; This function uses a non-reentrant model
  1160 ;;
  1161                           
  1162                           	psect	text7
  1163  000E64                     __ptext7:
  1164                           	opt callstack 0
  1165  000E64                     _Servo_Dos_90:
  1166                           	opt callstack 29
  1167  000E64                     
  1168                           ;Servo.c: 191:              for(int i=0;i<16;i++){
  1169  000E64  0E00               	movlw	0
  1170  000E66  6E03               	movwf	(Servo_Dos_90@i+1)^0,c
  1171  000E68  0E00               	movlw	0
  1172  000E6A  6E02               	movwf	Servo_Dos_90@i^0,c
  1173  000E6C                     l259:
  1174                           
  1175                           ;Servo.c: 192:             LATBbits.LATB1=0;
  1176  000E6C  928A               	bcf	138,1,c	;volatile
  1177                           
  1178                           ;Servo.c: 193:             LATBbits.LATB1=1;
  1179  000E6E  828A               	bsf	138,1,c	;volatile
  1180  000E70                     
  1181                           ;Servo.c: 194:             _delay((unsigned long)((1.500)*(8000000/4000.0)));
  1182  000E70  0E04               	movlw	4
  1183  000E72  6E01               	movwf	??_Servo_Dos_90^0,c
  1184  000E74  0EE4               	movlw	228
  1185  000E76                     u997:
  1186  000E76  2EE8               	decfsz	wreg,f,c
  1187  000E78  D7FE               	bra	u997
  1188  000E7A  2E01               	decfsz	??_Servo_Dos_90^0,f,c
  1189  000E7C  D7FC               	bra	u997
  1190  000E7E  D000               	nop2	
  1191  000E80                     
  1192                           ;Servo.c: 195:             LATBbits.LATB1=0;
  1193  000E80  928A               	bcf	138,1,c	;volatile
  1194                           
  1195                           ;Servo.c: 196:             _delay((unsigned long)((20-1.500)*(8000000/4000.0)));}
  1196  000E82  0E31               	movlw	49
  1197  000E84  6E01               	movwf	??_Servo_Dos_90^0,c
  1198  000E86  0E0C               	movlw	12
  1199  000E88                     u1007:
  1200  000E88  2EE8               	decfsz	wreg,f,c
  1201  000E8A  D7FE               	bra	u1007
  1202  000E8C  2E01               	decfsz	??_Servo_Dos_90^0,f,c
  1203  000E8E  D7FC               	bra	u1007
  1204  000E90  4A02               	infsnz	Servo_Dos_90@i^0,f,c
  1205  000E92  2A03               	incf	(Servo_Dos_90@i+1)^0,f,c
  1206  000E94  BE03               	btfsc	(Servo_Dos_90@i+1)^0,7,c
  1207  000E96  EF56  F007         	goto	u401
  1208  000E9A  5003               	movf	(Servo_Dos_90@i+1)^0,w,c
  1209  000E9C  E109               	bnz	u400
  1210  000E9E  0E10               	movlw	16
  1211  000EA0  5C02               	subwf	Servo_Dos_90@i^0,w,c
  1212  000EA2  A0D8               	btfss	status,0,c
  1213  000EA4  EF56  F007         	goto	u401
  1214  000EA8  EF58  F007         	goto	u400
  1215  000EAC                     u401:
  1216  000EAC  EF36  F007         	goto	l259
  1217  000EB0                     u400:
  1218  000EB0  0012               	return		;funcret
  1219  000EB2                     __end_of_Servo_Dos_90:
  1220                           	opt callstack 0
  1221                           
  1222 ;; *************** function _Servo_Dos_75 *****************
  1223 ;; Defined at:
  1224 ;;		line 181 in file "Servo.c"
  1225 ;; Parameters:    Size  Location     Type
  1226 ;;		None
  1227 ;; Auto vars:     Size  Location     Type
  1228 ;;  i               2    1[COMRAM] int 
  1229 ;; Return value:  Size  Location     Type
  1230 ;;                  1    wreg      void 
  1231 ;; Registers used:
  1232 ;;		wreg, status,2, status,0
  1233 ;; Tracked objects:
  1234 ;;		On entry : 0/0
  1235 ;;		On exit  : 0/0
  1236 ;;		Unchanged: 0/0
  1237 ;; Data sizes:     COMRAM   BANK0   BANK1   BANK2   BANK3   BANK4   BANK5   BANK6   BANK7
  1238 ;;      Params:         0       0       0       0       0       0       0       0       0
  1239 ;;      Locals:         2       0       0       0       0       0       0       0       0
  1240 ;;      Temps:          1       0       0       0       0       0       0       0       0
  1241 ;;      Totals:         3       0       0       0       0       0       0       0       0
  1242 ;;Total ram usage:        3 bytes
  1243 ;; Hardware stack levels used:    1
  1244 ;; This function calls:
  1245 ;;		Nothing
  1246 ;; This function is called by:
  1247 ;;		_Servos_90_90_Lento
  1248 ;; This function uses a non-reentrant model
  1249 ;;
  1250                           
  1251                           	psect	text8
  1252  000C86                     __ptext8:
  1253                           	opt callstack 0
  1254  000C86                     _Servo_Dos_75:
  1255                           	opt callstack 29
  1256  000C86                     
  1257                           ;Servo.c: 182:              for(int i=0;i<16;i++){
  1258  000C86  0E00               	movlw	0
  1259  000C88  6E03               	movwf	(Servo_Dos_75@i+1)^0,c
  1260  000C8A  0E00               	movlw	0
  1261  000C8C  6E02               	movwf	Servo_Dos_75@i^0,c
  1262  000C8E                     l254:
  1263                           
  1264                           ;Servo.c: 183:             LATBbits.LATB1=0;
  1265  000C8E  928A               	bcf	138,1,c	;volatile
  1266                           
  1267                           ;Servo.c: 184:             LATBbits.LATB1=1;
  1268  000C90  828A               	bsf	138,1,c	;volatile
  1269  000C92                     
  1270                           ;Servo.c: 185:             _delay((unsigned long)((1.300)*(8000000/4000.0)));
  1271  000C92  0E04               	movlw	4
  1272  000C94  6E01               	movwf	??_Servo_Dos_75^0,c
  1273  000C96  0E5F               	movlw	95
  1274  000C98                     u1017:
  1275  000C98  2EE8               	decfsz	wreg,f,c
  1276  000C9A  D7FE               	bra	u1017
  1277  000C9C  2E01               	decfsz	??_Servo_Dos_75^0,f,c
  1278  000C9E  D7FC               	bra	u1017
  1279  000CA0  F000               	nop	
  1280  000CA2                     
  1281                           ;Servo.c: 186:             LATBbits.LATB1=0;
  1282  000CA2  928A               	bcf	138,1,c	;volatile
  1283                           
  1284                           ;Servo.c: 187:             _delay((unsigned long)((20-1.300)*(8000000/4000.0)));}
  1285  000CA4  0E31               	movlw	49
  1286  000CA6  6E01               	movwf	??_Servo_Dos_75^0,c
  1287  000CA8  0E91               	movlw	145
  1288  000CAA                     u1027:
  1289  000CAA  2EE8               	decfsz	wreg,f,c
  1290  000CAC  D7FE               	bra	u1027
  1291  000CAE  2E01               	decfsz	??_Servo_Dos_75^0,f,c
  1292  000CB0  D7FC               	bra	u1027
  1293  000CB2  F000               	nop	
  1294  000CB4  4A02               	infsnz	Servo_Dos_75@i^0,f,c
  1295  000CB6  2A03               	incf	(Servo_Dos_75@i+1)^0,f,c
  1296  000CB8  BE03               	btfsc	(Servo_Dos_75@i+1)^0,7,c
  1297  000CBA  EF68  F006         	goto	u461
  1298  000CBE  5003               	movf	(Servo_Dos_75@i+1)^0,w,c
  1299  000CC0  E109               	bnz	u460
  1300  000CC2  0E10               	movlw	16
  1301  000CC4  5C02               	subwf	Servo_Dos_75@i^0,w,c
  1302  000CC6  A0D8               	btfss	status,0,c
  1303  000CC8  EF68  F006         	goto	u461
  1304  000CCC  EF6A  F006         	goto	u460
  1305  000CD0                     u461:
  1306  000CD0  EF47  F006         	goto	l254
  1307  000CD4                     u460:
  1308  000CD4  0012               	return		;funcret
  1309  000CD6                     __end_of_Servo_Dos_75:
  1310                           	opt callstack 0
  1311                           
  1312 ;; *************** function _Servos_90_60_Lento *****************
  1313 ;; Defined at:
  1314 ;;		line 180 in file "Confi.c"
  1315 ;; Parameters:    Size  Location     Type
  1316 ;;		None
  1317 ;; Auto vars:     Size  Location     Type
  1318 ;;		None
  1319 ;; Return value:  Size  Location     Type
  1320 ;;                  1    wreg      void 
  1321 ;; Registers used:
  1322 ;;		wreg, status,2, status,0, cstack
  1323 ;; Tracked objects:
  1324 ;;		On entry : 0/0
  1325 ;;		On exit  : 0/0
  1326 ;;		Unchanged: 0/0
  1327 ;; Data sizes:     COMRAM   BANK0   BANK1   BANK2   BANK3   BANK4   BANK5   BANK6   BANK7
  1328 ;;      Params:         0       0       0       0       0       0       0       0       0
  1329 ;;      Locals:         0       0       0       0       0       0       0       0       0
  1330 ;;      Temps:          0       0       0       0       0       0       0       0       0
  1331 ;;      Totals:         0       0       0       0       0       0       0       0       0
  1332 ;;Total ram usage:        0 bytes
  1333 ;; Hardware stack levels used:    1
  1334 ;; Hardware stack levels required when called:    1
  1335 ;; This function calls:
  1336 ;;		_Servo_Dos_0
  1337 ;;		_Servo_Dos_15
  1338 ;;		_Servo_Dos_30
  1339 ;;		_Servo_Dos_45
  1340 ;;		_Servo_Dos_60
  1341 ;;		_Servo_Uno_0
  1342 ;;		_Servo_Uno_15
  1343 ;;		_Servo_Uno_30
  1344 ;;		_Servo_Uno_45
  1345 ;;		_Servo_Uno_60
  1346 ;; This function is called by:
  1347 ;;		_main
  1348 ;; This function uses a non-reentrant model
  1349 ;;
  1350                           
  1351                           	psect	text9
  1352  001692                     __ptext9:
  1353                           	opt callstack 0
  1354  001692                     _Servos_90_60_Lento:
  1355                           	opt callstack 29
  1356  001692                     
  1357                           ;Confi.c: 181:         Servo_Uno_0(); Servo_Dos_0();
  1358  001692  ECDE  F00C         	call	_Servo_Uno_0	;wreg free
  1359  001696  EC26  F00D         	call	_Servo_Dos_0	;wreg free
  1360                           
  1361                           ;Confi.c: 182:         Servo_Uno_15(); Servo_Dos_15();
  1362  00169A  EC65  F00A         	call	_Servo_Uno_15	;wreg free
  1363  00169E  EC8B  F00A         	call	_Servo_Dos_15	;wreg free
  1364                           
  1365                           ;Confi.c: 183:         Servo_Uno_30(); Servo_Dos_30();
  1366  0016A2  EC6E  F00B         	call	_Servo_Uno_30	;wreg free
  1367  0016A6  EC93  F00B         	call	_Servo_Dos_30	;wreg free
  1368                           
  1369                           ;Confi.c: 184:         Servo_Uno_45(); Servo_Dos_45();
  1370  0016AA  EC80  F007         	call	_Servo_Uno_45	;wreg free
  1371  0016AE  ECCE  F007         	call	_Servo_Dos_45	;wreg free
  1372                           
  1373                           ;Confi.c: 185:         Servo_Uno_60(); Servo_Dos_60();
  1374  0016B2  EC59  F007         	call	_Servo_Uno_60	;wreg free
  1375  0016B6  ECA7  F007         	call	_Servo_Dos_60	;wreg free
  1376                           
  1377                           ;Confi.c: 186:         Servo_Uno_45(); Servo_Dos_45();
  1378  0016BA  EC80  F007         	call	_Servo_Uno_45	;wreg free
  1379  0016BE  ECCE  F007         	call	_Servo_Dos_45	;wreg free
  1380                           
  1381                           ;Confi.c: 187:         Servo_Uno_30(); Servo_Dos_30();
  1382  0016C2  EC6E  F00B         	call	_Servo_Uno_30	;wreg free
  1383  0016C6  EC93  F00B         	call	_Servo_Dos_30	;wreg free
  1384                           
  1385                           ;Confi.c: 188:         Servo_Uno_15(); Servo_Dos_15();
  1386  0016CA  EC65  F00A         	call	_Servo_Uno_15	;wreg free
  1387  0016CE  EC8B  F00A         	call	_Servo_Dos_15	;wreg free
  1388                           
  1389                           ;Confi.c: 189:         Servo_Uno_0(); Servo_Dos_0();
  1390  0016D2  ECDE  F00C         	call	_Servo_Uno_0	;wreg free
  1391  0016D6  EC26  F00D         	call	_Servo_Dos_0	;wreg free
  1392  0016DA  0012               	return		;funcret
  1393  0016DC                     __end_of_Servos_90_60_Lento:
  1394                           	opt callstack 0
  1395                           
  1396 ;; *************** function _Servo_Uno_60 *****************
  1397 ;; Defined at:
  1398 ;;		line 53 in file "Servo.c"
  1399 ;; Parameters:    Size  Location     Type
  1400 ;;		None
  1401 ;; Auto vars:     Size  Location     Type
  1402 ;;  i               2    1[COMRAM] int 
  1403 ;; Return value:  Size  Location     Type
  1404 ;;                  1    wreg      void 
  1405 ;; Registers used:
  1406 ;;		wreg, status,2, status,0
  1407 ;; Tracked objects:
  1408 ;;		On entry : 0/0
  1409 ;;		On exit  : 0/0
  1410 ;;		Unchanged: 0/0
  1411 ;; Data sizes:     COMRAM   BANK0   BANK1   BANK2   BANK3   BANK4   BANK5   BANK6   BANK7
  1412 ;;      Params:         0       0       0       0       0       0       0       0       0
  1413 ;;      Locals:         2       0       0       0       0       0       0       0       0
  1414 ;;      Temps:          1       0       0       0       0       0       0       0       0
  1415 ;;      Totals:         3       0       0       0       0       0       0       0       0
  1416 ;;Total ram usage:        3 bytes
  1417 ;; Hardware stack levels used:    1
  1418 ;; This function calls:
  1419 ;;		Nothing
  1420 ;; This function is called by:
  1421 ;;		_Servos_90_90_Rapido
  1422 ;;		_Servos_90_60_Lento
  1423 ;;		_Servos_90_90_Lento
  1424 ;;		_Servos_90_60_Rapido
  1425 ;; This function uses a non-reentrant model
  1426 ;;
  1427                           
  1428                           	psect	text10
  1429  000EB2                     __ptext10:
  1430                           	opt callstack 0
  1431  000EB2                     _Servo_Uno_60:
  1432                           	opt callstack 29
  1433  000EB2                     
  1434                           ;Servo.c: 54:              for(int i=0;i<16;i++){
  1435  000EB2  0E00               	movlw	0
  1436  000EB4  6E03               	movwf	(Servo_Uno_60@i+1)^0,c
  1437  000EB6  0E00               	movlw	0
  1438  000EB8  6E02               	movwf	Servo_Uno_60@i^0,c
  1439  000EBA                     l184:
  1440                           
  1441                           ;Servo.c: 55:             LATBbits.LATB0=0;
  1442  000EBA  908A               	bcf	138,0,c	;volatile
  1443                           
  1444                           ;Servo.c: 56:             LATBbits.LATB0=1;
  1445  000EBC  808A               	bsf	138,0,c	;volatile
  1446  000EBE                     
  1447                           ;Servo.c: 57:             _delay((unsigned long)((1.170)*(8000000/4000.0)));
  1448  000EBE  0E04               	movlw	4
  1449  000EC0  6E01               	movwf	??_Servo_Uno_60^0,c
  1450  000EC2  0E08               	movlw	8
  1451  000EC4                     u1037:
  1452  000EC4  2EE8               	decfsz	wreg,f,c
  1453  000EC6  D7FE               	bra	u1037
  1454  000EC8  2E01               	decfsz	??_Servo_Uno_60^0,f,c
  1455  000ECA  D7FC               	bra	u1037
  1456  000ECC  D000               	nop2	
  1457  000ECE                     
  1458                           ;Servo.c: 58:             LATBbits.LATB0=0;
  1459  000ECE  908A               	bcf	138,0,c	;volatile
  1460                           
  1461                           ;Servo.c: 59:             _delay((unsigned long)((20-1.170)*(8000000/4000.0)));}
  1462  000ED0  0E31               	movlw	49
  1463  000ED2  6E01               	movwf	??_Servo_Uno_60^0,c
  1464  000ED4  0EE8               	movlw	232
  1465  000ED6                     u1047:
  1466  000ED6  2EE8               	decfsz	wreg,f,c
  1467  000ED8  D7FE               	bra	u1047
  1468  000EDA  2E01               	decfsz	??_Servo_Uno_60^0,f,c
  1469  000EDC  D7FC               	bra	u1047
  1470  000EDE  4A02               	infsnz	Servo_Uno_60@i^0,f,c
  1471  000EE0  2A03               	incf	(Servo_Uno_60@i+1)^0,f,c
  1472  000EE2  BE03               	btfsc	(Servo_Uno_60@i+1)^0,7,c
  1473  000EE4  EF7D  F007         	goto	u371
  1474  000EE8  5003               	movf	(Servo_Uno_60@i+1)^0,w,c
  1475  000EEA  E109               	bnz	u370
  1476  000EEC  0E10               	movlw	16
  1477  000EEE  5C02               	subwf	Servo_Uno_60@i^0,w,c
  1478  000EF0  A0D8               	btfss	status,0,c
  1479  000EF2  EF7D  F007         	goto	u371
  1480  000EF6  EF7F  F007         	goto	u370
  1481  000EFA                     u371:
  1482  000EFA  EF5D  F007         	goto	l184
  1483  000EFE                     u370:
  1484  000EFE  0012               	return		;funcret
  1485  000F00                     __end_of_Servo_Uno_60:
  1486                           	opt callstack 0
  1487                           
  1488 ;; *************** function _Servo_Uno_45 *****************
  1489 ;; Defined at:
  1490 ;;		line 44 in file "Servo.c"
  1491 ;; Parameters:    Size  Location     Type
  1492 ;;		None
  1493 ;; Auto vars:     Size  Location     Type
  1494 ;;  i               2    1[COMRAM] int 
  1495 ;; Return value:  Size  Location     Type
  1496 ;;                  1    wreg      void 
  1497 ;; Registers used:
  1498 ;;		wreg, status,2, status,0
  1499 ;; Tracked objects:
  1500 ;;		On entry : 0/0
  1501 ;;		On exit  : 0/0
  1502 ;;		Unchanged: 0/0
  1503 ;; Data sizes:     COMRAM   BANK0   BANK1   BANK2   BANK3   BANK4   BANK5   BANK6   BANK7
  1504 ;;      Params:         0       0       0       0       0       0       0       0       0
  1505 ;;      Locals:         2       0       0       0       0       0       0       0       0
  1506 ;;      Temps:          1       0       0       0       0       0       0       0       0
  1507 ;;      Totals:         3       0       0       0       0       0       0       0       0
  1508 ;;Total ram usage:        3 bytes
  1509 ;; Hardware stack levels used:    1
  1510 ;; This function calls:
  1511 ;;		Nothing
  1512 ;; This function is called by:
  1513 ;;		_Servos_90_60_Lento
  1514 ;;		_Servos_90_90_Lento
  1515 ;; This function uses a non-reentrant model
  1516 ;;
  1517                           
  1518                           	psect	text11
  1519  000F00                     __ptext11:
  1520                           	opt callstack 0
  1521  000F00                     _Servo_Uno_45:
  1522                           	opt callstack 29
  1523  000F00                     
  1524                           ;Servo.c: 45:              for(int i=0;i<16;i++){
  1525  000F00  0E00               	movlw	0
  1526  000F02  6E03               	movwf	(Servo_Uno_45@i+1)^0,c
  1527  000F04  0E00               	movlw	0
  1528  000F06  6E02               	movwf	Servo_Uno_45@i^0,c
  1529  000F08                     l179:
  1530                           
  1531                           ;Servo.c: 46:             LATBbits.LATB0=0;
  1532  000F08  908A               	bcf	138,0,c	;volatile
  1533                           
  1534                           ;Servo.c: 47:             LATBbits.LATB0=1;
  1535  000F0A  808A               	bsf	138,0,c	;volatile
  1536  000F0C                     
  1537                           ;Servo.c: 48:             _delay((unsigned long)((1.000)*(8000000/4000.0)));
  1538  000F0C  0E03               	movlw	3
  1539  000F0E  6E01               	movwf	??_Servo_Uno_45^0,c
  1540  000F10  0E98               	movlw	152
  1541  000F12                     u1057:
  1542  000F12  2EE8               	decfsz	wreg,f,c
  1543  000F14  D7FE               	bra	u1057
  1544  000F16  2E01               	decfsz	??_Servo_Uno_45^0,f,c
  1545  000F18  D7FC               	bra	u1057
  1546  000F1A                     
  1547                           ;Servo.c: 49:             LATBbits.LATB0=0;
  1548  000F1A  908A               	bcf	138,0,c	;volatile
  1549                           
  1550                           ;Servo.c: 50:             _delay((unsigned long)((20-1.000)*(8000000/4000.0)));}
  1551  000F1C  0E32               	movlw	50
  1552  000F1E  6E01               	movwf	??_Servo_Uno_45^0,c
  1553  000F20  0E58               	movlw	88
  1554  000F22                     u1067:
  1555  000F22  2EE8               	decfsz	wreg,f,c
  1556  000F24  D7FE               	bra	u1067
  1557  000F26  2E01               	decfsz	??_Servo_Uno_45^0,f,c
  1558  000F28  D7FC               	bra	u1067
  1559  000F2A  D000               	nop2	
  1560  000F2C  4A02               	infsnz	Servo_Uno_45@i^0,f,c
  1561  000F2E  2A03               	incf	(Servo_Uno_45@i+1)^0,f,c
  1562  000F30  BE03               	btfsc	(Servo_Uno_45@i+1)^0,7,c
  1563  000F32  EFA4  F007         	goto	u431
  1564  000F36  5003               	movf	(Servo_Uno_45@i+1)^0,w,c
  1565  000F38  E109               	bnz	u430
  1566  000F3A  0E10               	movlw	16
  1567  000F3C  5C02               	subwf	Servo_Uno_45@i^0,w,c
  1568  000F3E  A0D8               	btfss	status,0,c
  1569  000F40  EFA4  F007         	goto	u431
  1570  000F44  EFA6  F007         	goto	u430
  1571  000F48                     u431:
  1572  000F48  EF84  F007         	goto	l179
  1573  000F4C                     u430:
  1574  000F4C  0012               	return		;funcret
  1575  000F4E                     __end_of_Servo_Uno_45:
  1576                           	opt callstack 0
  1577                           
  1578 ;; *************** function _Servo_Dos_60 *****************
  1579 ;; Defined at:
  1580 ;;		line 172 in file "Servo.c"
  1581 ;; Parameters:    Size  Location     Type
  1582 ;;		None
  1583 ;; Auto vars:     Size  Location     Type
  1584 ;;  i               2    1[COMRAM] int 
  1585 ;; Return value:  Size  Location     Type
  1586 ;;                  1    wreg      void 
  1587 ;; Registers used:
  1588 ;;		wreg, status,2, status,0
  1589 ;; Tracked objects:
  1590 ;;		On entry : 0/0
  1591 ;;		On exit  : 0/0
  1592 ;;		Unchanged: 0/0
  1593 ;; Data sizes:     COMRAM   BANK0   BANK1   BANK2   BANK3   BANK4   BANK5   BANK6   BANK7
  1594 ;;      Params:         0       0       0       0       0       0       0       0       0
  1595 ;;      Locals:         2       0       0       0       0       0       0       0       0
  1596 ;;      Temps:          1       0       0       0       0       0       0       0       0
  1597 ;;      Totals:         3       0       0       0       0       0       0       0       0
  1598 ;;Total ram usage:        3 bytes
  1599 ;; Hardware stack levels used:    1
  1600 ;; This function calls:
  1601 ;;		Nothing
  1602 ;; This function is called by:
  1603 ;;		_Servos_90_90_Rapido
  1604 ;;		_Servos_90_60_Lento
  1605 ;;		_Servos_90_90_Lento
  1606 ;;		_Servos_90_60_Rapido
  1607 ;; This function uses a non-reentrant model
  1608 ;;
  1609                           
  1610                           	psect	text12
  1611  000F4E                     __ptext12:
  1612                           	opt callstack 0
  1613  000F4E                     _Servo_Dos_60:
  1614                           	opt callstack 29
  1615  000F4E                     
  1616                           ;Servo.c: 173:              for(int i=0;i<16;i++){
  1617  000F4E  0E00               	movlw	0
  1618  000F50  6E03               	movwf	(Servo_Dos_60@i+1)^0,c
  1619  000F52  0E00               	movlw	0
  1620  000F54  6E02               	movwf	Servo_Dos_60@i^0,c
  1621  000F56                     l249:
  1622                           
  1623                           ;Servo.c: 174:             LATBbits.LATB1=0;
  1624  000F56  928A               	bcf	138,1,c	;volatile
  1625                           
  1626                           ;Servo.c: 175:             LATBbits.LATB1=1;
  1627  000F58  828A               	bsf	138,1,c	;volatile
  1628  000F5A                     
  1629                           ;Servo.c: 176:             _delay((unsigned long)((1.170)*(8000000/4000.0)));
  1630  000F5A  0E04               	movlw	4
  1631  000F5C  6E01               	movwf	??_Servo_Dos_60^0,c
  1632  000F5E  0E08               	movlw	8
  1633  000F60                     u1077:
  1634  000F60  2EE8               	decfsz	wreg,f,c
  1635  000F62  D7FE               	bra	u1077
  1636  000F64  2E01               	decfsz	??_Servo_Dos_60^0,f,c
  1637  000F66  D7FC               	bra	u1077
  1638  000F68  D000               	nop2	
  1639  000F6A                     
  1640                           ;Servo.c: 177:             LATBbits.LATB1=0;
  1641  000F6A  928A               	bcf	138,1,c	;volatile
  1642                           
  1643                           ;Servo.c: 178:             _delay((unsigned long)((20-1.170)*(8000000/4000.0)));}
  1644  000F6C  0E31               	movlw	49
  1645  000F6E  6E01               	movwf	??_Servo_Dos_60^0,c
  1646  000F70  0EE8               	movlw	232
  1647  000F72                     u1087:
  1648  000F72  2EE8               	decfsz	wreg,f,c
  1649  000F74  D7FE               	bra	u1087
  1650  000F76  2E01               	decfsz	??_Servo_Dos_60^0,f,c
  1651  000F78  D7FC               	bra	u1087
  1652  000F7A  4A02               	infsnz	Servo_Dos_60@i^0,f,c
  1653  000F7C  2A03               	incf	(Servo_Dos_60@i+1)^0,f,c
  1654  000F7E  BE03               	btfsc	(Servo_Dos_60@i+1)^0,7,c
  1655  000F80  EFCB  F007         	goto	u381
  1656  000F84  5003               	movf	(Servo_Dos_60@i+1)^0,w,c
  1657  000F86  E109               	bnz	u380
  1658  000F88  0E10               	movlw	16
  1659  000F8A  5C02               	subwf	Servo_Dos_60@i^0,w,c
  1660  000F8C  A0D8               	btfss	status,0,c
  1661  000F8E  EFCB  F007         	goto	u381
  1662  000F92  EFCD  F007         	goto	u380
  1663  000F96                     u381:
  1664  000F96  EFAB  F007         	goto	l249
  1665  000F9A                     u380:
  1666  000F9A  0012               	return		;funcret
  1667  000F9C                     __end_of_Servo_Dos_60:
  1668                           	opt callstack 0
  1669                           
  1670 ;; *************** function _Servo_Dos_45 *****************
  1671 ;; Defined at:
  1672 ;;		line 163 in file "Servo.c"
  1673 ;; Parameters:    Size  Location     Type
  1674 ;;		None
  1675 ;; Auto vars:     Size  Location     Type
  1676 ;;  i               2    1[COMRAM] int 
  1677 ;; Return value:  Size  Location     Type
  1678 ;;                  1    wreg      void 
  1679 ;; Registers used:
  1680 ;;		wreg, status,2, status,0
  1681 ;; Tracked objects:
  1682 ;;		On entry : 0/0
  1683 ;;		On exit  : 0/0
  1684 ;;		Unchanged: 0/0
  1685 ;; Data sizes:     COMRAM   BANK0   BANK1   BANK2   BANK3   BANK4   BANK5   BANK6   BANK7
  1686 ;;      Params:         0       0       0       0       0       0       0       0       0
  1687 ;;      Locals:         2       0       0       0       0       0       0       0       0
  1688 ;;      Temps:          1       0       0       0       0       0       0       0       0
  1689 ;;      Totals:         3       0       0       0       0       0       0       0       0
  1690 ;;Total ram usage:        3 bytes
  1691 ;; Hardware stack levels used:    1
  1692 ;; This function calls:
  1693 ;;		Nothing
  1694 ;; This function is called by:
  1695 ;;		_Servos_90_60_Lento
  1696 ;;		_Servos_90_90_Lento
  1697 ;; This function uses a non-reentrant model
  1698 ;;
  1699                           
  1700                           	psect	text13
  1701  000F9C                     __ptext13:
  1702                           	opt callstack 0
  1703  000F9C                     _Servo_Dos_45:
  1704                           	opt callstack 29
  1705  000F9C                     
  1706                           ;Servo.c: 164:              for(int i=0;i<16;i++){
  1707  000F9C  0E00               	movlw	0
  1708  000F9E  6E03               	movwf	(Servo_Dos_45@i+1)^0,c
  1709  000FA0  0E00               	movlw	0
  1710  000FA2  6E02               	movwf	Servo_Dos_45@i^0,c
  1711  000FA4                     l244:
  1712                           
  1713                           ;Servo.c: 165:             LATBbits.LATB1=0;
  1714  000FA4  928A               	bcf	138,1,c	;volatile
  1715                           
  1716                           ;Servo.c: 166:             LATBbits.LATB1=1;
  1717  000FA6  828A               	bsf	138,1,c	;volatile
  1718  000FA8                     
  1719                           ;Servo.c: 167:             _delay((unsigned long)((1.000)*(8000000/4000.0)));
  1720  000FA8  0E03               	movlw	3
  1721  000FAA  6E01               	movwf	??_Servo_Dos_45^0,c
  1722  000FAC  0E98               	movlw	152
  1723  000FAE                     u1097:
  1724  000FAE  2EE8               	decfsz	wreg,f,c
  1725  000FB0  D7FE               	bra	u1097
  1726  000FB2  2E01               	decfsz	??_Servo_Dos_45^0,f,c
  1727  000FB4  D7FC               	bra	u1097
  1728  000FB6                     
  1729                           ;Servo.c: 168:             LATBbits.LATB1=0;
  1730  000FB6  928A               	bcf	138,1,c	;volatile
  1731                           
  1732                           ;Servo.c: 169:             _delay((unsigned long)((20-1.000)*(8000000/4000.0)));}
  1733  000FB8  0E32               	movlw	50
  1734  000FBA  6E01               	movwf	??_Servo_Dos_45^0,c
  1735  000FBC  0E58               	movlw	88
  1736  000FBE                     u1107:
  1737  000FBE  2EE8               	decfsz	wreg,f,c
  1738  000FC0  D7FE               	bra	u1107
  1739  000FC2  2E01               	decfsz	??_Servo_Dos_45^0,f,c
  1740  000FC4  D7FC               	bra	u1107
  1741  000FC6  D000               	nop2	
  1742  000FC8  4A02               	infsnz	Servo_Dos_45@i^0,f,c
  1743  000FCA  2A03               	incf	(Servo_Dos_45@i+1)^0,f,c
  1744  000FCC  BE03               	btfsc	(Servo_Dos_45@i+1)^0,7,c
  1745  000FCE  EFF2  F007         	goto	u441
  1746  000FD2  5003               	movf	(Servo_Dos_45@i+1)^0,w,c
  1747  000FD4  E109               	bnz	u440
  1748  000FD6  0E10               	movlw	16
  1749  000FD8  5C02               	subwf	Servo_Dos_45@i^0,w,c
  1750  000FDA  A0D8               	btfss	status,0,c
  1751  000FDC  EFF2  F007         	goto	u441
  1752  000FE0  EFF4  F007         	goto	u440
  1753  000FE4                     u441:
  1754  000FE4  EFD2  F007         	goto	l244
  1755  000FE8                     u440:
  1756  000FE8  0012               	return		;funcret
  1757  000FEA                     __end_of_Servo_Dos_45:
  1758                           	opt callstack 0
  1759                           
  1760 ;; *************** function _Servos_90_30_Rapido *****************
  1761 ;; Defined at:
  1762 ;;		line 148 in file "Confi.c"
  1763 ;; Parameters:    Size  Location     Type
  1764 ;;		None
  1765 ;; Auto vars:     Size  Location     Type
  1766 ;;		None
  1767 ;; Return value:  Size  Location     Type
  1768 ;;                  1    wreg      void 
  1769 ;; Registers used:
  1770 ;;		wreg, status,2, status,0, cstack
  1771 ;; Tracked objects:
  1772 ;;		On entry : 0/0
  1773 ;;		On exit  : 0/0
  1774 ;;		Unchanged: 0/0
  1775 ;; Data sizes:     COMRAM   BANK0   BANK1   BANK2   BANK3   BANK4   BANK5   BANK6   BANK7
  1776 ;;      Params:         0       0       0       0       0       0       0       0       0
  1777 ;;      Locals:         0       0       0       0       0       0       0       0       0
  1778 ;;      Temps:          0       0       0       0       0       0       0       0       0
  1779 ;;      Totals:         0       0       0       0       0       0       0       0       0
  1780 ;;Total ram usage:        0 bytes
  1781 ;; Hardware stack levels used:    1
  1782 ;; Hardware stack levels required when called:    1
  1783 ;; This function calls:
  1784 ;;		_Servo_Dos_0
  1785 ;;		_Servo_Dos_30
  1786 ;;		_Servo_Uno_0
  1787 ;;		_Servo_Uno_30
  1788 ;; This function is called by:
  1789 ;;		_main
  1790 ;; This function uses a non-reentrant model
  1791 ;;
  1792                           
  1793                           	psect	text14
  1794  001BC4                     __ptext14:
  1795                           	opt callstack 0
  1796  001BC4                     _Servos_90_30_Rapido:
  1797                           	opt callstack 29
  1798  001BC4                     
  1799                           ;Confi.c: 149:         Servo_Uno_0(); Servo_Dos_0();
  1800  001BC4  ECDE  F00C         	call	_Servo_Uno_0	;wreg free
  1801  001BC8  EC26  F00D         	call	_Servo_Dos_0	;wreg free
  1802                           
  1803                           ;Confi.c: 150:         Servo_Uno_30(); Servo_Dos_30();
  1804  001BCC  EC6E  F00B         	call	_Servo_Uno_30	;wreg free
  1805  001BD0  EC93  F00B         	call	_Servo_Dos_30	;wreg free
  1806                           
  1807                           ;Confi.c: 151:         Servo_Uno_0(); Servo_Dos_0();
  1808  001BD4  ECDE  F00C         	call	_Servo_Uno_0	;wreg free
  1809  001BD8  EC26  F00D         	call	_Servo_Dos_0	;wreg free
  1810  001BDC  0012               	return		;funcret
  1811  001BDE                     __end_of_Servos_90_30_Rapido:
  1812                           	opt callstack 0
  1813                           
  1814 ;; *************** function _Servos_90_30_Lento *****************
  1815 ;; Defined at:
  1816 ;;		line 172 in file "Confi.c"
  1817 ;; Parameters:    Size  Location     Type
  1818 ;;		None
  1819 ;; Auto vars:     Size  Location     Type
  1820 ;;		None
  1821 ;; Return value:  Size  Location     Type
  1822 ;;                  1    wreg      void 
  1823 ;; Registers used:
  1824 ;;		wreg, status,2, status,0, cstack
  1825 ;; Tracked objects:
  1826 ;;		On entry : 0/0
  1827 ;;		On exit  : 0/0
  1828 ;;		Unchanged: 0/0
  1829 ;; Data sizes:     COMRAM   BANK0   BANK1   BANK2   BANK3   BANK4   BANK5   BANK6   BANK7
  1830 ;;      Params:         0       0       0       0       0       0       0       0       0
  1831 ;;      Locals:         0       0       0       0       0       0       0       0       0
  1832 ;;      Temps:          0       0       0       0       0       0       0       0       0
  1833 ;;      Totals:         0       0       0       0       0       0       0       0       0
  1834 ;;Total ram usage:        0 bytes
  1835 ;; Hardware stack levels used:    1
  1836 ;; Hardware stack levels required when called:    1
  1837 ;; This function calls:
  1838 ;;		_Servo_Dos_0
  1839 ;;		_Servo_Dos_15
  1840 ;;		_Servo_Dos_30
  1841 ;;		_Servo_Uno_0
  1842 ;;		_Servo_Uno_15
  1843 ;;		_Servo_Uno_30
  1844 ;; This function is called by:
  1845 ;;		_main
  1846 ;; This function uses a non-reentrant model
  1847 ;;
  1848                           
  1849                           	psect	text15
  1850  001B48                     __ptext15:
  1851                           	opt callstack 0
  1852  001B48                     _Servos_90_30_Lento:
  1853                           	opt callstack 29
  1854  001B48                     
  1855                           ;Confi.c: 173:         Servo_Uno_0(); Servo_Dos_0();
  1856  001B48  ECDE  F00C         	call	_Servo_Uno_0	;wreg free
  1857  001B4C  EC26  F00D         	call	_Servo_Dos_0	;wreg free
  1858                           
  1859                           ;Confi.c: 174:         Servo_Uno_15(); Servo_Dos_15();
  1860  001B50  EC65  F00A         	call	_Servo_Uno_15	;wreg free
  1861  001B54  EC8B  F00A         	call	_Servo_Dos_15	;wreg free
  1862                           
  1863                           ;Confi.c: 175:         Servo_Uno_30(); Servo_Dos_30();
  1864  001B58  EC6E  F00B         	call	_Servo_Uno_30	;wreg free
  1865  001B5C  EC93  F00B         	call	_Servo_Dos_30	;wreg free
  1866                           
  1867                           ;Confi.c: 176:         Servo_Uno_15(); Servo_Dos_15();
  1868  001B60  EC65  F00A         	call	_Servo_Uno_15	;wreg free
  1869  001B64  EC8B  F00A         	call	_Servo_Dos_15	;wreg free
  1870                           
  1871                           ;Confi.c: 177:         Servo_Uno_0(); Servo_Dos_0();
  1872  001B68  ECDE  F00C         	call	_Servo_Uno_0	;wreg free
  1873  001B6C  EC26  F00D         	call	_Servo_Dos_0	;wreg free
  1874  001B70  0012               	return		;funcret
  1875  001B72                     __end_of_Servos_90_30_Lento:
  1876                           	opt callstack 0
  1877                           
  1878 ;; *************** function _Servo_Uno_30 *****************
  1879 ;; Defined at:
  1880 ;;		line 35 in file "Servo.c"
  1881 ;; Parameters:    Size  Location     Type
  1882 ;;		None
  1883 ;; Auto vars:     Size  Location     Type
  1884 ;;  i               2    1[COMRAM] int 
  1885 ;; Return value:  Size  Location     Type
  1886 ;;                  1    wreg      void 
  1887 ;; Registers used:
  1888 ;;		wreg, status,2, status,0
  1889 ;; Tracked objects:
  1890 ;;		On entry : 0/0
  1891 ;;		On exit  : 0/0
  1892 ;;		Unchanged: 0/0
  1893 ;; Data sizes:     COMRAM   BANK0   BANK1   BANK2   BANK3   BANK4   BANK5   BANK6   BANK7
  1894 ;;      Params:         0       0       0       0       0       0       0       0       0
  1895 ;;      Locals:         2       0       0       0       0       0       0       0       0
  1896 ;;      Temps:          1       0       0       0       0       0       0       0       0
  1897 ;;      Totals:         3       0       0       0       0       0       0       0       0
  1898 ;;Total ram usage:        3 bytes
  1899 ;; Hardware stack levels used:    1
  1900 ;; This function calls:
  1901 ;;		Nothing
  1902 ;; This function is called by:
  1903 ;;		_Servos_90_30_Rapido
  1904 ;;		_Servos_90_90_Rapido
  1905 ;;		_Servos_90_30_Lento
  1906 ;;		_Servos_90_60_Lento
  1907 ;;		_Servos_90_90_Lento
  1908 ;;		_Servos_90_60_Rapido
  1909 ;; This function uses a non-reentrant model
  1910 ;;
  1911                           
  1912                           	psect	text16
  1913  0016DC                     __ptext16:
  1914                           	opt callstack 0
  1915  0016DC                     _Servo_Uno_30:
  1916                           	opt callstack 29
  1917  0016DC                     
  1918                           ;Servo.c: 36:              for(int i=0;i<16;i++){
  1919  0016DC  0E00               	movlw	0
  1920  0016DE  6E03               	movwf	(Servo_Uno_30@i+1)^0,c
  1921  0016E0  0E00               	movlw	0
  1922  0016E2  6E02               	movwf	Servo_Uno_30@i^0,c
  1923  0016E4                     l174:
  1924                           
  1925                           ;Servo.c: 37:             LATBbits.LATB0=0;
  1926  0016E4  908A               	bcf	138,0,c	;volatile
  1927                           
  1928                           ;Servo.c: 38:             LATBbits.LATB0=1;
  1929  0016E6  808A               	bsf	138,0,c	;volatile
  1930  0016E8                     
  1931                           ;Servo.c: 39:             _delay((unsigned long)((0.830)*(8000000/4000.0)));
  1932  0016E8  0EED               	movlw	237
  1933  0016EA                     u1117:
  1934  0016EA  D000               	nop2	
  1935  0016EC  D000               	nop2	
  1936  0016EE  2EE8               	decfsz	wreg,f,c
  1937  0016F0  D7FC               	bra	u1117
  1938  0016F2  F000               	nop	
  1939  0016F4                     
  1940                           ;Servo.c: 40:             LATBbits.LATB0=0;
  1941  0016F4  908A               	bcf	138,0,c	;volatile
  1942                           
  1943                           ;Servo.c: 41:             _delay((unsigned long)((20-0.830)*(8000000/4000.0)));}
  1944  0016F6  0E32               	movlw	50
  1945  0016F8  6E01               	movwf	??_Servo_Uno_30^0,c
  1946  0016FA  0ECA               	movlw	202
  1947  0016FC                     u1127:
  1948  0016FC  2EE8               	decfsz	wreg,f,c
  1949  0016FE  D7FE               	bra	u1127
  1950  001700  2E01               	decfsz	??_Servo_Uno_30^0,f,c
  1951  001702  D7FC               	bra	u1127
  1952  001704  4A02               	infsnz	Servo_Uno_30@i^0,f,c
  1953  001706  2A03               	incf	(Servo_Uno_30@i+1)^0,f,c
  1954  001708  BE03               	btfsc	(Servo_Uno_30@i+1)^0,7,c
  1955  00170A  EF90  F00B         	goto	u351
  1956  00170E  5003               	movf	(Servo_Uno_30@i+1)^0,w,c
  1957  001710  E109               	bnz	u350
  1958  001712  0E10               	movlw	16
  1959  001714  5C02               	subwf	Servo_Uno_30@i^0,w,c
  1960  001716  A0D8               	btfss	status,0,c
  1961  001718  EF90  F00B         	goto	u351
  1962  00171C  EF92  F00B         	goto	u350
  1963  001720                     u351:
  1964  001720  EF72  F00B         	goto	l174
  1965  001724                     u350:
  1966  001724  0012               	return		;funcret
  1967  001726                     __end_of_Servo_Uno_30:
  1968                           	opt callstack 0
  1969                           
  1970 ;; *************** function _Servo_Uno_15 *****************
  1971 ;; Defined at:
  1972 ;;		line 26 in file "Servo.c"
  1973 ;; Parameters:    Size  Location     Type
  1974 ;;		None
  1975 ;; Auto vars:     Size  Location     Type
  1976 ;;  i               2    1[COMRAM] int 
  1977 ;; Return value:  Size  Location     Type
  1978 ;;                  1    wreg      void 
  1979 ;; Registers used:
  1980 ;;		wreg, status,2, status,0
  1981 ;; Tracked objects:
  1982 ;;		On entry : 0/0
  1983 ;;		On exit  : 0/0
  1984 ;;		Unchanged: 0/0
  1985 ;; Data sizes:     COMRAM   BANK0   BANK1   BANK2   BANK3   BANK4   BANK5   BANK6   BANK7
  1986 ;;      Params:         0       0       0       0       0       0       0       0       0
  1987 ;;      Locals:         2       0       0       0       0       0       0       0       0
  1988 ;;      Temps:          1       0       0       0       0       0       0       0       0
  1989 ;;      Totals:         3       0       0       0       0       0       0       0       0
  1990 ;;Total ram usage:        3 bytes
  1991 ;; Hardware stack levels used:    1
  1992 ;; This function calls:
  1993 ;;		Nothing
  1994 ;; This function is called by:
  1995 ;;		_Servos_90_30_Lento
  1996 ;;		_Servos_90_60_Lento
  1997 ;;		_Servos_90_90_Lento
  1998 ;; This function uses a non-reentrant model
  1999 ;;
  2000                           
  2001                           	psect	text17
  2002  0014CA                     __ptext17:
  2003                           	opt callstack 0
  2004  0014CA                     _Servo_Uno_15:
  2005                           	opt callstack 29
  2006  0014CA                     
  2007                           ;Servo.c: 27:              for(int i=0;i<16;i++){
  2008  0014CA  0E00               	movlw	0
  2009  0014CC  6E03               	movwf	(Servo_Uno_15@i+1)^0,c
  2010  0014CE  0E00               	movlw	0
  2011  0014D0  6E02               	movwf	Servo_Uno_15@i^0,c
  2012  0014D2                     l169:
  2013                           
  2014                           ;Servo.c: 28:             LATBbits.LATB0=0;
  2015  0014D2  908A               	bcf	138,0,c	;volatile
  2016                           
  2017                           ;Servo.c: 29:             LATBbits.LATB0=1;
  2018  0014D4  808A               	bsf	138,0,c	;volatile
  2019  0014D6                     
  2020                           ;Servo.c: 30:             _delay((unsigned long)((0.670)*(8000000/4000.0)));
  2021  0014D6  0EBF               	movlw	191
  2022  0014D8                     u1137:
  2023  0014D8  D000               	nop2	
  2024  0014DA  D000               	nop2	
  2025  0014DC  2EE8               	decfsz	wreg,f,c
  2026  0014DE  D7FC               	bra	u1137
  2027  0014E0  D000               	nop2	
  2028  0014E2  F000               	nop	
  2029  0014E4                     
  2030                           ;Servo.c: 31:             LATBbits.LATB0=0;
  2031  0014E4  908A               	bcf	138,0,c	;volatile
  2032                           
  2033                           ;Servo.c: 32:             _delay((unsigned long)((20-0.670)*(8000000/4000.0)));}
  2034  0014E6  0E33               	movlw	51
  2035  0014E8  6E01               	movwf	??_Servo_Uno_15^0,c
  2036  0014EA  0E34               	movlw	52
  2037  0014EC                     u1147:
  2038  0014EC  2EE8               	decfsz	wreg,f,c
  2039  0014EE  D7FE               	bra	u1147
  2040  0014F0  2E01               	decfsz	??_Servo_Uno_15^0,f,c
  2041  0014F2  D7FC               	bra	u1147
  2042  0014F4  4A02               	infsnz	Servo_Uno_15@i^0,f,c
  2043  0014F6  2A03               	incf	(Servo_Uno_15@i+1)^0,f,c
  2044  0014F8  BE03               	btfsc	(Servo_Uno_15@i+1)^0,7,c
  2045  0014FA  EF88  F00A         	goto	u411
  2046  0014FE  5003               	movf	(Servo_Uno_15@i+1)^0,w,c
  2047  001500  E109               	bnz	u410
  2048  001502  0E10               	movlw	16
  2049  001504  5C02               	subwf	Servo_Uno_15@i^0,w,c
  2050  001506  A0D8               	btfss	status,0,c
  2051  001508  EF88  F00A         	goto	u411
  2052  00150C  EF8A  F00A         	goto	u410
  2053  001510                     u411:
  2054  001510  EF69  F00A         	goto	l169
  2055  001514                     u410:
  2056  001514  0012               	return		;funcret
  2057  001516                     __end_of_Servo_Uno_15:
  2058                           	opt callstack 0
  2059                           
  2060 ;; *************** function _Servo_Dos_30 *****************
  2061 ;; Defined at:
  2062 ;;		line 154 in file "Servo.c"
  2063 ;; Parameters:    Size  Location     Type
  2064 ;;		None
  2065 ;; Auto vars:     Size  Location     Type
  2066 ;;  i               2    1[COMRAM] int 
  2067 ;; Return value:  Size  Location     Type
  2068 ;;                  1    wreg      void 
  2069 ;; Registers used:
  2070 ;;		wreg, status,2, status,0
  2071 ;; Tracked objects:
  2072 ;;		On entry : 0/0
  2073 ;;		On exit  : 0/0
  2074 ;;		Unchanged: 0/0
  2075 ;; Data sizes:     COMRAM   BANK0   BANK1   BANK2   BANK3   BANK4   BANK5   BANK6   BANK7
  2076 ;;      Params:         0       0       0       0       0       0       0       0       0
  2077 ;;      Locals:         2       0       0       0       0       0       0       0       0
  2078 ;;      Temps:          1       0       0       0       0       0       0       0       0
  2079 ;;      Totals:         3       0       0       0       0       0       0       0       0
  2080 ;;Total ram usage:        3 bytes
  2081 ;; Hardware stack levels used:    1
  2082 ;; This function calls:
  2083 ;;		Nothing
  2084 ;; This function is called by:
  2085 ;;		_Servos_90_30_Rapido
  2086 ;;		_Servos_90_90_Rapido
  2087 ;;		_Servos_90_30_Lento
  2088 ;;		_Servos_90_60_Lento
  2089 ;;		_Servos_90_90_Lento
  2090 ;;		_Servos_90_60_Rapido
  2091 ;; This function uses a non-reentrant model
  2092 ;;
  2093                           
  2094                           	psect	text18
  2095  001726                     __ptext18:
  2096                           	opt callstack 0
  2097  001726                     _Servo_Dos_30:
  2098                           	opt callstack 29
  2099  001726                     
  2100                           ;Servo.c: 155:              for(int i=0;i<16;i++){
  2101  001726  0E00               	movlw	0
  2102  001728  6E03               	movwf	(Servo_Dos_30@i+1)^0,c
  2103  00172A  0E00               	movlw	0
  2104  00172C  6E02               	movwf	Servo_Dos_30@i^0,c
  2105  00172E                     l239:
  2106                           
  2107                           ;Servo.c: 156:             LATBbits.LATB1=0;
  2108  00172E  928A               	bcf	138,1,c	;volatile
  2109                           
  2110                           ;Servo.c: 157:             LATBbits.LATB1=1;
  2111  001730  828A               	bsf	138,1,c	;volatile
  2112  001732                     
  2113                           ;Servo.c: 158:             _delay((unsigned long)((0.830)*(8000000/4000.0)));
  2114  001732  0EED               	movlw	237
  2115  001734                     u1157:
  2116  001734  D000               	nop2	
  2117  001736  D000               	nop2	
  2118  001738  2EE8               	decfsz	wreg,f,c
  2119  00173A  D7FC               	bra	u1157
  2120  00173C  F000               	nop	
  2121  00173E                     
  2122                           ;Servo.c: 159:             LATBbits.LATB1=0;
  2123  00173E  928A               	bcf	138,1,c	;volatile
  2124                           
  2125                           ;Servo.c: 160:             _delay((unsigned long)((20-0.830)*(8000000/4000.0)));}
  2126  001740  0E32               	movlw	50
  2127  001742  6E01               	movwf	??_Servo_Dos_30^0,c
  2128  001744  0ECA               	movlw	202
  2129  001746                     u1167:
  2130  001746  2EE8               	decfsz	wreg,f,c
  2131  001748  D7FE               	bra	u1167
  2132  00174A  2E01               	decfsz	??_Servo_Dos_30^0,f,c
  2133  00174C  D7FC               	bra	u1167
  2134  00174E  4A02               	infsnz	Servo_Dos_30@i^0,f,c
  2135  001750  2A03               	incf	(Servo_Dos_30@i+1)^0,f,c
  2136  001752  BE03               	btfsc	(Servo_Dos_30@i+1)^0,7,c
  2137  001754  EFB5  F00B         	goto	u361
  2138  001758  5003               	movf	(Servo_Dos_30@i+1)^0,w,c
  2139  00175A  E109               	bnz	u360
  2140  00175C  0E10               	movlw	16
  2141  00175E  5C02               	subwf	Servo_Dos_30@i^0,w,c
  2142  001760  A0D8               	btfss	status,0,c
  2143  001762  EFB5  F00B         	goto	u361
  2144  001766  EFB7  F00B         	goto	u360
  2145  00176A                     u361:
  2146  00176A  EF97  F00B         	goto	l239
  2147  00176E                     u360:
  2148  00176E  0012               	return		;funcret
  2149  001770                     __end_of_Servo_Dos_30:
  2150                           	opt callstack 0
  2151                           
  2152 ;; *************** function _Servo_Dos_15 *****************
  2153 ;; Defined at:
  2154 ;;		line 145 in file "Servo.c"
  2155 ;; Parameters:    Size  Location     Type
  2156 ;;		None
  2157 ;; Auto vars:     Size  Location     Type
  2158 ;;  i               2    1[COMRAM] int 
  2159 ;; Return value:  Size  Location     Type
  2160 ;;                  1    wreg      void 
  2161 ;; Registers used:
  2162 ;;		wreg, status,2, status,0
  2163 ;; Tracked objects:
  2164 ;;		On entry : 0/0
  2165 ;;		On exit  : 0/0
  2166 ;;		Unchanged: 0/0
  2167 ;; Data sizes:     COMRAM   BANK0   BANK1   BANK2   BANK3   BANK4   BANK5   BANK6   BANK7
  2168 ;;      Params:         0       0       0       0       0       0       0       0       0
  2169 ;;      Locals:         2       0       0       0       0       0       0       0       0
  2170 ;;      Temps:          1       0       0       0       0       0       0       0       0
  2171 ;;      Totals:         3       0       0       0       0       0       0       0       0
  2172 ;;Total ram usage:        3 bytes
  2173 ;; Hardware stack levels used:    1
  2174 ;; This function calls:
  2175 ;;		Nothing
  2176 ;; This function is called by:
  2177 ;;		_Servos_90_30_Lento
  2178 ;;		_Servos_90_60_Lento
  2179 ;;		_Servos_90_90_Lento
  2180 ;; This function uses a non-reentrant model
  2181 ;;
  2182                           
  2183                           	psect	text19
  2184  001516                     __ptext19:
  2185                           	opt callstack 0
  2186  001516                     _Servo_Dos_15:
  2187                           	opt callstack 29
  2188  001516                     
  2189                           ;Servo.c: 146:              for(int i=0;i<16;i++){
  2190  001516  0E00               	movlw	0
  2191  001518  6E03               	movwf	(Servo_Dos_15@i+1)^0,c
  2192  00151A  0E00               	movlw	0
  2193  00151C  6E02               	movwf	Servo_Dos_15@i^0,c
  2194  00151E                     l234:
  2195                           
  2196                           ;Servo.c: 147:             LATBbits.LATB1=0;
  2197  00151E  928A               	bcf	138,1,c	;volatile
  2198                           
  2199                           ;Servo.c: 148:             LATBbits.LATB1=1;
  2200  001520  828A               	bsf	138,1,c	;volatile
  2201  001522                     
  2202                           ;Servo.c: 149:             _delay((unsigned long)((0.670)*(8000000/4000.0)));
  2203  001522  0EBF               	movlw	191
  2204  001524                     u1177:
  2205  001524  D000               	nop2	
  2206  001526  D000               	nop2	
  2207  001528  2EE8               	decfsz	wreg,f,c
  2208  00152A  D7FC               	bra	u1177
  2209  00152C  D000               	nop2	
  2210  00152E  F000               	nop	
  2211  001530                     
  2212                           ;Servo.c: 150:             LATBbits.LATB1=0;
  2213  001530  928A               	bcf	138,1,c	;volatile
  2214                           
  2215                           ;Servo.c: 151:             _delay((unsigned long)((20-0.670)*(8000000/4000.0)));}
  2216  001532  0E33               	movlw	51
  2217  001534  6E01               	movwf	??_Servo_Dos_15^0,c
  2218  001536  0E34               	movlw	52
  2219  001538                     u1187:
  2220  001538  2EE8               	decfsz	wreg,f,c
  2221  00153A  D7FE               	bra	u1187
  2222  00153C  2E01               	decfsz	??_Servo_Dos_15^0,f,c
  2223  00153E  D7FC               	bra	u1187
  2224  001540  4A02               	infsnz	Servo_Dos_15@i^0,f,c
  2225  001542  2A03               	incf	(Servo_Dos_15@i+1)^0,f,c
  2226  001544  BE03               	btfsc	(Servo_Dos_15@i+1)^0,7,c
  2227  001546  EFAE  F00A         	goto	u421
  2228  00154A  5003               	movf	(Servo_Dos_15@i+1)^0,w,c
  2229  00154C  E109               	bnz	u420
  2230  00154E  0E10               	movlw	16
  2231  001550  5C02               	subwf	Servo_Dos_15@i^0,w,c
  2232  001552  A0D8               	btfss	status,0,c
  2233  001554  EFAE  F00A         	goto	u421
  2234  001558  EFB0  F00A         	goto	u420
  2235  00155C                     u421:
  2236  00155C  EF8F  F00A         	goto	l234
  2237  001560                     u420:
  2238  001560  0012               	return		;funcret
  2239  001562                     __end_of_Servo_Dos_15:
  2240                           	opt callstack 0
  2241                           
  2242 ;; *************** function _Servos_60_60_Rapido *****************
  2243 ;; Defined at:
  2244 ;;		line 117 in file "Confi.c"
  2245 ;; Parameters:    Size  Location     Type
  2246 ;;		None
  2247 ;; Auto vars:     Size  Location     Type
  2248 ;;		None
  2249 ;; Return value:  Size  Location     Type
  2250 ;;                  1    wreg      void 
  2251 ;; Registers used:
  2252 ;;		wreg, status,2, status,0, cstack
  2253 ;; Tracked objects:
  2254 ;;		On entry : 0/0
  2255 ;;		On exit  : 0/0
  2256 ;;		Unchanged: 0/0
  2257 ;; Data sizes:     COMRAM   BANK0   BANK1   BANK2   BANK3   BANK4   BANK5   BANK6   BANK7
  2258 ;;      Params:         0       0       0       0       0       0       0       0       0
  2259 ;;      Locals:         0       0       0       0       0       0       0       0       0
  2260 ;;      Temps:          0       0       0       0       0       0       0       0       0
  2261 ;;      Totals:         0       0       0       0       0       0       0       0       0
  2262 ;;Total ram usage:        0 bytes
  2263 ;; Hardware stack levels used:    1
  2264 ;; Hardware stack levels required when called:    1
  2265 ;; This function calls:
  2266 ;;		_Servo_Cinco_0
  2267 ;;		_Servo_Cinco_30
  2268 ;;		_Servo_Cinco_60
  2269 ;;		_Servo_Seis_0
  2270 ;;		_Servo_Seis_30
  2271 ;;		_Servo_Seis_60
  2272 ;; This function is called by:
  2273 ;;		_main
  2274 ;; This function uses a non-reentrant model
  2275 ;;
  2276                           
  2277                           	psect	text20
  2278  001B72                     __ptext20:
  2279                           	opt callstack 0
  2280  001B72                     _Servos_60_60_Rapido:
  2281                           	opt callstack 29
  2282  001B72                     
  2283                           ;Confi.c: 118:         Servo_Cinco_0(); Servo_Seis_0();
  2284  001B72  EC4A  F00D         	call	_Servo_Cinco_0	;wreg free
  2285  001B76  EC02  F00D         	call	_Servo_Seis_0	;wreg free
  2286                           
  2287                           ;Confi.c: 119:         Servo_Cinco_30(); Servo_Seis_30();
  2288  001B7A  EC02  F00C         	call	_Servo_Cinco_30	;wreg free
  2289  001B7E  ECDD  F00B         	call	_Servo_Seis_30	;wreg free
  2290                           
  2291                           ;Confi.c: 120:         Servo_Cinco_60(); Servo_Seis_60();
  2292  001B82  EC43  F008         	call	_Servo_Cinco_60	;wreg free
  2293  001B86  ECF5  F007         	call	_Servo_Seis_60	;wreg free
  2294                           
  2295                           ;Confi.c: 121:         Servo_Cinco_30(); Servo_Seis_30();
  2296  001B8A  EC02  F00C         	call	_Servo_Cinco_30	;wreg free
  2297  001B8E  ECDD  F00B         	call	_Servo_Seis_30	;wreg free
  2298                           
  2299                           ;Confi.c: 122:         Servo_Cinco_0(); Servo_Seis_0();
  2300  001B92  EC4A  F00D         	call	_Servo_Cinco_0	;wreg free
  2301  001B96  EC02  F00D         	call	_Servo_Seis_0	;wreg free
  2302  001B9A  0012               	return		;funcret
  2303  001B9C                     __end_of_Servos_60_60_Rapido:
  2304                           	opt callstack 0
  2305                           
  2306 ;; *************** function _Servos_60_60_Lento *****************
  2307 ;; Defined at:
  2308 ;;		line 134 in file "Confi.c"
  2309 ;; Parameters:    Size  Location     Type
  2310 ;;		None
  2311 ;; Auto vars:     Size  Location     Type
  2312 ;;		None
  2313 ;; Return value:  Size  Location     Type
  2314 ;;                  1    wreg      void 
  2315 ;; Registers used:
  2316 ;;		wreg, status,2, status,0, cstack
  2317 ;; Tracked objects:
  2318 ;;		On entry : 0/0
  2319 ;;		On exit  : 0/0
  2320 ;;		Unchanged: 0/0
  2321 ;; Data sizes:     COMRAM   BANK0   BANK1   BANK2   BANK3   BANK4   BANK5   BANK6   BANK7
  2322 ;;      Params:         0       0       0       0       0       0       0       0       0
  2323 ;;      Locals:         0       0       0       0       0       0       0       0       0
  2324 ;;      Temps:          0       0       0       0       0       0       0       0       0
  2325 ;;      Totals:         0       0       0       0       0       0       0       0       0
  2326 ;;Total ram usage:        0 bytes
  2327 ;; Hardware stack levels used:    1
  2328 ;; Hardware stack levels required when called:    1
  2329 ;; This function calls:
  2330 ;;		_Servo_Cinco_0
  2331 ;;		_Servo_Cinco_15
  2332 ;;		_Servo_Cinco_30
  2333 ;;		_Servo_Cinco_45
  2334 ;;		_Servo_Cinco_60
  2335 ;;		_Servo_Seis_0
  2336 ;;		_Servo_Seis_15
  2337 ;;		_Servo_Seis_30
  2338 ;;		_Servo_Seis_45
  2339 ;;		_Servo_Seis_60
  2340 ;; This function is called by:
  2341 ;;		_main
  2342 ;; This function uses a non-reentrant model
  2343 ;;
  2344                           
  2345                           	psect	text21
  2346  001770                     __ptext21:
  2347                           	opt callstack 0
  2348  001770                     _Servos_60_60_Lento:
  2349                           	opt callstack 29
  2350  001770                     
  2351                           ;Confi.c: 135:         Servo_Cinco_0(); Servo_Seis_0();
  2352  001770  EC4A  F00D         	call	_Servo_Cinco_0	;wreg free
  2353  001774  EC02  F00D         	call	_Servo_Seis_0	;wreg free
  2354                           
  2355                           ;Confi.c: 136:         Servo_Cinco_15(); Servo_Seis_15();
  2356  001778  ECD7  F00A         	call	_Servo_Cinco_15	;wreg free
  2357  00177C  ECB1  F00A         	call	_Servo_Seis_15	;wreg free
  2358                           
  2359                           ;Confi.c: 137:         Servo_Cinco_30(); Servo_Seis_30();
  2360  001780  EC02  F00C         	call	_Servo_Cinco_30	;wreg free
  2361  001784  ECDD  F00B         	call	_Servo_Seis_30	;wreg free
  2362                           
  2363                           ;Confi.c: 138:         Servo_Cinco_45(); Servo_Seis_45();
  2364  001788  EC6A  F008         	call	_Servo_Cinco_45	;wreg free
  2365  00178C  EC1C  F008         	call	_Servo_Seis_45	;wreg free
  2366                           
  2367                           ;Confi.c: 139:         Servo_Cinco_60(); Servo_Seis_60();
  2368  001790  EC43  F008         	call	_Servo_Cinco_60	;wreg free
  2369  001794  ECF5  F007         	call	_Servo_Seis_60	;wreg free
  2370                           
  2371                           ;Confi.c: 140:         Servo_Cinco_45(); Servo_Seis_45();
  2372  001798  EC6A  F008         	call	_Servo_Cinco_45	;wreg free
  2373  00179C  EC1C  F008         	call	_Servo_Seis_45	;wreg free
  2374                           
  2375                           ;Confi.c: 141:         Servo_Cinco_30(); Servo_Seis_30();
  2376  0017A0  EC02  F00C         	call	_Servo_Cinco_30	;wreg free
  2377  0017A4  ECDD  F00B         	call	_Servo_Seis_30	;wreg free
  2378                           
  2379                           ;Confi.c: 142:         Servo_Cinco_15(); Servo_Seis_15();
  2380  0017A8  ECD7  F00A         	call	_Servo_Cinco_15	;wreg free
  2381  0017AC  ECB1  F00A         	call	_Servo_Seis_15	;wreg free
  2382                           
  2383                           ;Confi.c: 143:         Servo_Cinco_0(); Servo_Seis_0();
  2384  0017B0  EC4A  F00D         	call	_Servo_Cinco_0	;wreg free
  2385  0017B4  EC02  F00D         	call	_Servo_Seis_0	;wreg free
  2386  0017B8  0012               	return		;funcret
  2387  0017BA                     __end_of_Servos_60_60_Lento:
  2388                           	opt callstack 0
  2389                           
  2390 ;; *************** function _Servo_Seis_60 *****************
  2391 ;; Defined at:
  2392 ;;		line 648 in file "Servo.c"
  2393 ;; Parameters:    Size  Location     Type
  2394 ;;		None
  2395 ;; Auto vars:     Size  Location     Type
  2396 ;;  i               2    1[COMRAM] int 
  2397 ;; Return value:  Size  Location     Type
  2398 ;;                  1    wreg      void 
  2399 ;; Registers used:
  2400 ;;		wreg, status,2, status,0
  2401 ;; Tracked objects:
  2402 ;;		On entry : 0/0
  2403 ;;		On exit  : 0/0
  2404 ;;		Unchanged: 0/0
  2405 ;; Data sizes:     COMRAM   BANK0   BANK1   BANK2   BANK3   BANK4   BANK5   BANK6   BANK7
  2406 ;;      Params:         0       0       0       0       0       0       0       0       0
  2407 ;;      Locals:         2       0       0       0       0       0       0       0       0
  2408 ;;      Temps:          1       0       0       0       0       0       0       0       0
  2409 ;;      Totals:         3       0       0       0       0       0       0       0       0
  2410 ;;Total ram usage:        3 bytes
  2411 ;; Hardware stack levels used:    1
  2412 ;; This function calls:
  2413 ;;		Nothing
  2414 ;; This function is called by:
  2415 ;;		_Servos_60_60_Rapido
  2416 ;;		_Servos_60_60_Lento
  2417 ;; This function uses a non-reentrant model
  2418 ;;
  2419                           
  2420                           	psect	text22
  2421  000FEA                     __ptext22:
  2422                           	opt callstack 0
  2423  000FEA                     _Servo_Seis_60:
  2424                           	opt callstack 29
  2425  000FEA                     
  2426                           ;Servo.c: 649:              for(int i=0;i<16;i++){
  2427  000FEA  0E00               	movlw	0
  2428  000FEC  6E03               	movwf	(Servo_Seis_60@i+1)^0,c
  2429  000FEE  0E00               	movlw	0
  2430  000FF0  6E02               	movwf	Servo_Seis_60@i^0,c
  2431  000FF2                     l509:
  2432                           
  2433                           ;Servo.c: 650:             LATBbits.LATB5=0;
  2434  000FF2  9A8A               	bcf	138,5,c	;volatile
  2435                           
  2436                           ;Servo.c: 651:             LATBbits.LATB5=1;
  2437  000FF4  8A8A               	bsf	138,5,c	;volatile
  2438  000FF6                     
  2439                           ;Servo.c: 652:             _delay((unsigned long)((1.170)*(8000000/4000.0)));
  2440  000FF6  0E04               	movlw	4
  2441  000FF8  6E01               	movwf	??_Servo_Seis_60^0,c
  2442  000FFA  0E08               	movlw	8
  2443  000FFC                     u1197:
  2444  000FFC  2EE8               	decfsz	wreg,f,c
  2445  000FFE  D7FE               	bra	u1197
  2446  001000  2E01               	decfsz	??_Servo_Seis_60^0,f,c
  2447  001002  D7FC               	bra	u1197
  2448  001004  D000               	nop2	
  2449  001006                     
  2450                           ;Servo.c: 653:             LATBbits.LATB5=0;
  2451  001006  9A8A               	bcf	138,5,c	;volatile
  2452                           
  2453                           ;Servo.c: 654:             _delay((unsigned long)((20-1.170)*(8000000/4000.0)));}
  2454  001008  0E31               	movlw	49
  2455  00100A  6E01               	movwf	??_Servo_Seis_60^0,c
  2456  00100C  0EE8               	movlw	232
  2457  00100E                     u1207:
  2458  00100E  2EE8               	decfsz	wreg,f,c
  2459  001010  D7FE               	bra	u1207
  2460  001012  2E01               	decfsz	??_Servo_Seis_60^0,f,c
  2461  001014  D7FC               	bra	u1207
  2462  001016  4A02               	infsnz	Servo_Seis_60@i^0,f,c
  2463  001018  2A03               	incf	(Servo_Seis_60@i+1)^0,f,c
  2464  00101A  BE03               	btfsc	(Servo_Seis_60@i+1)^0,7,c
  2465  00101C  EF19  F008         	goto	u301
  2466  001020  5003               	movf	(Servo_Seis_60@i+1)^0,w,c
  2467  001022  E109               	bnz	u300
  2468  001024  0E10               	movlw	16
  2469  001026  5C02               	subwf	Servo_Seis_60@i^0,w,c
  2470  001028  A0D8               	btfss	status,0,c
  2471  00102A  EF19  F008         	goto	u301
  2472  00102E  EF1B  F008         	goto	u300
  2473  001032                     u301:
  2474  001032  EFF9  F007         	goto	l509
  2475  001036                     u300:
  2476  001036  0012               	return		;funcret
  2477  001038                     __end_of_Servo_Seis_60:
  2478                           	opt callstack 0
  2479                           
  2480 ;; *************** function _Servo_Seis_45 *****************
  2481 ;; Defined at:
  2482 ;;		line 639 in file "Servo.c"
  2483 ;; Parameters:    Size  Location     Type
  2484 ;;		None
  2485 ;; Auto vars:     Size  Location     Type
  2486 ;;  i               2    1[COMRAM] int 
  2487 ;; Return value:  Size  Location     Type
  2488 ;;                  1    wreg      void 
  2489 ;; Registers used:
  2490 ;;		wreg, status,2, status,0
  2491 ;; Tracked objects:
  2492 ;;		On entry : 0/0
  2493 ;;		On exit  : 0/0
  2494 ;;		Unchanged: 0/0
  2495 ;; Data sizes:     COMRAM   BANK0   BANK1   BANK2   BANK3   BANK4   BANK5   BANK6   BANK7
  2496 ;;      Params:         0       0       0       0       0       0       0       0       0
  2497 ;;      Locals:         2       0       0       0       0       0       0       0       0
  2498 ;;      Temps:          1       0       0       0       0       0       0       0       0
  2499 ;;      Totals:         3       0       0       0       0       0       0       0       0
  2500 ;;Total ram usage:        3 bytes
  2501 ;; Hardware stack levels used:    1
  2502 ;; This function calls:
  2503 ;;		Nothing
  2504 ;; This function is called by:
  2505 ;;		_Servos_60_60_Lento
  2506 ;; This function uses a non-reentrant model
  2507 ;;
  2508                           
  2509                           	psect	text23
  2510  001038                     __ptext23:
  2511                           	opt callstack 0
  2512  001038                     _Servo_Seis_45:
  2513                           	opt callstack 29
  2514  001038                     
  2515                           ;Servo.c: 640:              for(int i=0;i<16;i++){
  2516  001038  0E00               	movlw	0
  2517  00103A  6E03               	movwf	(Servo_Seis_45@i+1)^0,c
  2518  00103C  0E00               	movlw	0
  2519  00103E  6E02               	movwf	Servo_Seis_45@i^0,c
  2520  001040                     l504:
  2521                           
  2522                           ;Servo.c: 641:             LATBbits.LATB5=0;
  2523  001040  9A8A               	bcf	138,5,c	;volatile
  2524                           
  2525                           ;Servo.c: 642:             LATBbits.LATB5=1;
  2526  001042  8A8A               	bsf	138,5,c	;volatile
  2527  001044                     
  2528                           ;Servo.c: 643:             _delay((unsigned long)((1.000)*(8000000/4000.0)));
  2529  001044  0E03               	movlw	3
  2530  001046  6E01               	movwf	??_Servo_Seis_45^0,c
  2531  001048  0E98               	movlw	152
  2532  00104A                     u1217:
  2533  00104A  2EE8               	decfsz	wreg,f,c
  2534  00104C  D7FE               	bra	u1217
  2535  00104E  2E01               	decfsz	??_Servo_Seis_45^0,f,c
  2536  001050  D7FC               	bra	u1217
  2537  001052                     
  2538                           ;Servo.c: 644:             LATBbits.LATB5=0;
  2539  001052  9A8A               	bcf	138,5,c	;volatile
  2540                           
  2541                           ;Servo.c: 645:             _delay((unsigned long)((20-1.000)*(8000000/4000.0)));}
  2542  001054  0E32               	movlw	50
  2543  001056  6E01               	movwf	??_Servo_Seis_45^0,c
  2544  001058  0E58               	movlw	88
  2545  00105A                     u1227:
  2546  00105A  2EE8               	decfsz	wreg,f,c
  2547  00105C  D7FE               	bra	u1227
  2548  00105E  2E01               	decfsz	??_Servo_Seis_45^0,f,c
  2549  001060  D7FC               	bra	u1227
  2550  001062  D000               	nop2	
  2551  001064  4A02               	infsnz	Servo_Seis_45@i^0,f,c
  2552  001066  2A03               	incf	(Servo_Seis_45@i+1)^0,f,c
  2553  001068  BE03               	btfsc	(Servo_Seis_45@i+1)^0,7,c
  2554  00106A  EF40  F008         	goto	u341
  2555  00106E  5003               	movf	(Servo_Seis_45@i+1)^0,w,c
  2556  001070  E109               	bnz	u340
  2557  001072  0E10               	movlw	16
  2558  001074  5C02               	subwf	Servo_Seis_45@i^0,w,c
  2559  001076  A0D8               	btfss	status,0,c
  2560  001078  EF40  F008         	goto	u341
  2561  00107C  EF42  F008         	goto	u340
  2562  001080                     u341:
  2563  001080  EF20  F008         	goto	l504
  2564  001084                     u340:
  2565  001084  0012               	return		;funcret
  2566  001086                     __end_of_Servo_Seis_45:
  2567                           	opt callstack 0
  2568                           
  2569 ;; *************** function _Servo_Cinco_60 *****************
  2570 ;; Defined at:
  2571 ;;		line 529 in file "Servo.c"
  2572 ;; Parameters:    Size  Location     Type
  2573 ;;		None
  2574 ;; Auto vars:     Size  Location     Type
  2575 ;;  i               2    1[COMRAM] int 
  2576 ;; Return value:  Size  Location     Type
  2577 ;;                  1    wreg      void 
  2578 ;; Registers used:
  2579 ;;		wreg, status,2, status,0
  2580 ;; Tracked objects:
  2581 ;;		On entry : 0/0
  2582 ;;		On exit  : 0/0
  2583 ;;		Unchanged: 0/0
  2584 ;; Data sizes:     COMRAM   BANK0   BANK1   BANK2   BANK3   BANK4   BANK5   BANK6   BANK7
  2585 ;;      Params:         0       0       0       0       0       0       0       0       0
  2586 ;;      Locals:         2       0       0       0       0       0       0       0       0
  2587 ;;      Temps:          1       0       0       0       0       0       0       0       0
  2588 ;;      Totals:         3       0       0       0       0       0       0       0       0
  2589 ;;Total ram usage:        3 bytes
  2590 ;; Hardware stack levels used:    1
  2591 ;; This function calls:
  2592 ;;		Nothing
  2593 ;; This function is called by:
  2594 ;;		_Servos_60_60_Rapido
  2595 ;;		_Servos_60_60_Lento
  2596 ;; This function uses a non-reentrant model
  2597 ;;
  2598                           
  2599                           	psect	text24
  2600  001086                     __ptext24:
  2601                           	opt callstack 0
  2602  001086                     _Servo_Cinco_60:
  2603                           	opt callstack 29
  2604  001086                     
  2605                           ;Servo.c: 530:              for(int i=0;i<16;i++){
  2606  001086  0E00               	movlw	0
  2607  001088  6E03               	movwf	(Servo_Cinco_60@i+1)^0,c
  2608  00108A  0E00               	movlw	0
  2609  00108C  6E02               	movwf	Servo_Cinco_60@i^0,c
  2610  00108E                     l444:
  2611                           
  2612                           ;Servo.c: 531:             LATBbits.LATB4=0;
  2613  00108E  988A               	bcf	138,4,c	;volatile
  2614                           
  2615                           ;Servo.c: 532:             LATBbits.LATB4=1;
  2616  001090  888A               	bsf	138,4,c	;volatile
  2617  001092                     
  2618                           ;Servo.c: 533:             _delay((unsigned long)((1.170)*(8000000/4000.0)));
  2619  001092  0E04               	movlw	4
  2620  001094  6E01               	movwf	??_Servo_Cinco_60^0,c
  2621  001096  0E08               	movlw	8
  2622  001098                     u1237:
  2623  001098  2EE8               	decfsz	wreg,f,c
  2624  00109A  D7FE               	bra	u1237
  2625  00109C  2E01               	decfsz	??_Servo_Cinco_60^0,f,c
  2626  00109E  D7FC               	bra	u1237
  2627  0010A0  D000               	nop2	
  2628  0010A2                     
  2629                           ;Servo.c: 534:             LATBbits.LATB4=0;
  2630  0010A2  988A               	bcf	138,4,c	;volatile
  2631                           
  2632                           ;Servo.c: 535:             _delay((unsigned long)((20-1.170)*(8000000/4000.0)));}
  2633  0010A4  0E31               	movlw	49
  2634  0010A6  6E01               	movwf	??_Servo_Cinco_60^0,c
  2635  0010A8  0EE8               	movlw	232
  2636  0010AA                     u1247:
  2637  0010AA  2EE8               	decfsz	wreg,f,c
  2638  0010AC  D7FE               	bra	u1247
  2639  0010AE  2E01               	decfsz	??_Servo_Cinco_60^0,f,c
  2640  0010B0  D7FC               	bra	u1247
  2641  0010B2  4A02               	infsnz	Servo_Cinco_60@i^0,f,c
  2642  0010B4  2A03               	incf	(Servo_Cinco_60@i+1)^0,f,c
  2643  0010B6  BE03               	btfsc	(Servo_Cinco_60@i+1)^0,7,c
  2644  0010B8  EF67  F008         	goto	u291
  2645  0010BC  5003               	movf	(Servo_Cinco_60@i+1)^0,w,c
  2646  0010BE  E109               	bnz	u290
  2647  0010C0  0E10               	movlw	16
  2648  0010C2  5C02               	subwf	Servo_Cinco_60@i^0,w,c
  2649  0010C4  A0D8               	btfss	status,0,c
  2650  0010C6  EF67  F008         	goto	u291
  2651  0010CA  EF69  F008         	goto	u290
  2652  0010CE                     u291:
  2653  0010CE  EF47  F008         	goto	l444
  2654  0010D2                     u290:
  2655  0010D2  0012               	return		;funcret
  2656  0010D4                     __end_of_Servo_Cinco_60:
  2657                           	opt callstack 0
  2658                           
  2659 ;; *************** function _Servo_Cinco_45 *****************
  2660 ;; Defined at:
  2661 ;;		line 520 in file "Servo.c"
  2662 ;; Parameters:    Size  Location     Type
  2663 ;;		None
  2664 ;; Auto vars:     Size  Location     Type
  2665 ;;  i               2    1[COMRAM] int 
  2666 ;; Return value:  Size  Location     Type
  2667 ;;                  1    wreg      void 
  2668 ;; Registers used:
  2669 ;;		wreg, status,2, status,0
  2670 ;; Tracked objects:
  2671 ;;		On entry : 0/0
  2672 ;;		On exit  : 0/0
  2673 ;;		Unchanged: 0/0
  2674 ;; Data sizes:     COMRAM   BANK0   BANK1   BANK2   BANK3   BANK4   BANK5   BANK6   BANK7
  2675 ;;      Params:         0       0       0       0       0       0       0       0       0
  2676 ;;      Locals:         2       0       0       0       0       0       0       0       0
  2677 ;;      Temps:          1       0       0       0       0       0       0       0       0
  2678 ;;      Totals:         3       0       0       0       0       0       0       0       0
  2679 ;;Total ram usage:        3 bytes
  2680 ;; Hardware stack levels used:    1
  2681 ;; This function calls:
  2682 ;;		Nothing
  2683 ;; This function is called by:
  2684 ;;		_Servos_60_60_Lento
  2685 ;; This function uses a non-reentrant model
  2686 ;;
  2687                           
  2688                           	psect	text25
  2689  0010D4                     __ptext25:
  2690                           	opt callstack 0
  2691  0010D4                     _Servo_Cinco_45:
  2692                           	opt callstack 29
  2693  0010D4                     
  2694                           ;Servo.c: 521:              for(int i=0;i<16;i++){
  2695  0010D4  0E00               	movlw	0
  2696  0010D6  6E03               	movwf	(Servo_Cinco_45@i+1)^0,c
  2697  0010D8  0E00               	movlw	0
  2698  0010DA  6E02               	movwf	Servo_Cinco_45@i^0,c
  2699  0010DC                     l439:
  2700                           
  2701                           ;Servo.c: 522:             LATBbits.LATB4=0;
  2702  0010DC  988A               	bcf	138,4,c	;volatile
  2703                           
  2704                           ;Servo.c: 523:             LATBbits.LATB4=1;
  2705  0010DE  888A               	bsf	138,4,c	;volatile
  2706  0010E0                     
  2707                           ;Servo.c: 524:             _delay((unsigned long)((1.000)*(8000000/4000.0)));
  2708  0010E0  0E03               	movlw	3
  2709  0010E2  6E01               	movwf	??_Servo_Cinco_45^0,c
  2710  0010E4  0E98               	movlw	152
  2711  0010E6                     u1257:
  2712  0010E6  2EE8               	decfsz	wreg,f,c
  2713  0010E8  D7FE               	bra	u1257
  2714  0010EA  2E01               	decfsz	??_Servo_Cinco_45^0,f,c
  2715  0010EC  D7FC               	bra	u1257
  2716  0010EE                     
  2717                           ;Servo.c: 525:             LATBbits.LATB4=0;
  2718  0010EE  988A               	bcf	138,4,c	;volatile
  2719                           
  2720                           ;Servo.c: 526:             _delay((unsigned long)((20-1.000)*(8000000/4000.0)));}
  2721  0010F0  0E32               	movlw	50
  2722  0010F2  6E01               	movwf	??_Servo_Cinco_45^0,c
  2723  0010F4  0E58               	movlw	88
  2724  0010F6                     u1267:
  2725  0010F6  2EE8               	decfsz	wreg,f,c
  2726  0010F8  D7FE               	bra	u1267
  2727  0010FA  2E01               	decfsz	??_Servo_Cinco_45^0,f,c
  2728  0010FC  D7FC               	bra	u1267
  2729  0010FE  D000               	nop2	
  2730  001100  4A02               	infsnz	Servo_Cinco_45@i^0,f,c
  2731  001102  2A03               	incf	(Servo_Cinco_45@i+1)^0,f,c
  2732  001104  BE03               	btfsc	(Servo_Cinco_45@i+1)^0,7,c
  2733  001106  EF8E  F008         	goto	u331
  2734  00110A  5003               	movf	(Servo_Cinco_45@i+1)^0,w,c
  2735  00110C  E109               	bnz	u330
  2736  00110E  0E10               	movlw	16
  2737  001110  5C02               	subwf	Servo_Cinco_45@i^0,w,c
  2738  001112  A0D8               	btfss	status,0,c
  2739  001114  EF8E  F008         	goto	u331
  2740  001118  EF90  F008         	goto	u330
  2741  00111C                     u331:
  2742  00111C  EF6E  F008         	goto	l439
  2743  001120                     u330:
  2744  001120  0012               	return		;funcret
  2745  001122                     __end_of_Servo_Cinco_45:
  2746                           	opt callstack 0
  2747                           
  2748 ;; *************** function _Servos_60_30_Rapido *****************
  2749 ;; Defined at:
  2750 ;;		line 111 in file "Confi.c"
  2751 ;; Parameters:    Size  Location     Type
  2752 ;;		None
  2753 ;; Auto vars:     Size  Location     Type
  2754 ;;		None
  2755 ;; Return value:  Size  Location     Type
  2756 ;;                  1    wreg      void 
  2757 ;; Registers used:
  2758 ;;		wreg, status,2, status,0, cstack
  2759 ;; Tracked objects:
  2760 ;;		On entry : 0/0
  2761 ;;		On exit  : 0/0
  2762 ;;		Unchanged: 0/0
  2763 ;; Data sizes:     COMRAM   BANK0   BANK1   BANK2   BANK3   BANK4   BANK5   BANK6   BANK7
  2764 ;;      Params:         0       0       0       0       0       0       0       0       0
  2765 ;;      Locals:         0       0       0       0       0       0       0       0       0
  2766 ;;      Temps:          0       0       0       0       0       0       0       0       0
  2767 ;;      Totals:         0       0       0       0       0       0       0       0       0
  2768 ;;Total ram usage:        0 bytes
  2769 ;; Hardware stack levels used:    1
  2770 ;; Hardware stack levels required when called:    1
  2771 ;; This function calls:
  2772 ;;		_Servo_Cinco_0
  2773 ;;		_Servo_Cinco_30
  2774 ;;		_Servo_Seis_0
  2775 ;;		_Servo_Seis_30
  2776 ;; This function is called by:
  2777 ;;		_main
  2778 ;; This function uses a non-reentrant model
  2779 ;;
  2780                           
  2781                           	psect	text26
  2782  001BDE                     __ptext26:
  2783                           	opt callstack 0
  2784  001BDE                     _Servos_60_30_Rapido:
  2785                           	opt callstack 29
  2786  001BDE                     
  2787                           ;Confi.c: 112:         Servo_Cinco_0(); Servo_Seis_0();
  2788  001BDE  EC4A  F00D         	call	_Servo_Cinco_0	;wreg free
  2789  001BE2  EC02  F00D         	call	_Servo_Seis_0	;wreg free
  2790                           
  2791                           ;Confi.c: 113:         Servo_Cinco_30(); Servo_Seis_30();
  2792  001BE6  EC02  F00C         	call	_Servo_Cinco_30	;wreg free
  2793  001BEA  ECDD  F00B         	call	_Servo_Seis_30	;wreg free
  2794                           
  2795                           ;Confi.c: 114:         Servo_Cinco_0(); Servo_Seis_0();
  2796  001BEE  EC4A  F00D         	call	_Servo_Cinco_0	;wreg free
  2797  001BF2  EC02  F00D         	call	_Servo_Seis_0	;wreg free
  2798  001BF6  0012               	return		;funcret
  2799  001BF8                     __end_of_Servos_60_30_Rapido:
  2800                           	opt callstack 0
  2801                           
  2802 ;; *************** function _Servos_60_30_Lento *****************
  2803 ;; Defined at:
  2804 ;;		line 125 in file "Confi.c"
  2805 ;; Parameters:    Size  Location     Type
  2806 ;;		None
  2807 ;; Auto vars:     Size  Location     Type
  2808 ;;		None
  2809 ;; Return value:  Size  Location     Type
  2810 ;;                  1    wreg      void 
  2811 ;; Registers used:
  2812 ;;		wreg, status,2, status,0, cstack
  2813 ;; Tracked objects:
  2814 ;;		On entry : 0/0
  2815 ;;		On exit  : 0/0
  2816 ;;		Unchanged: 0/0
  2817 ;; Data sizes:     COMRAM   BANK0   BANK1   BANK2   BANK3   BANK4   BANK5   BANK6   BANK7
  2818 ;;      Params:         0       0       0       0       0       0       0       0       0
  2819 ;;      Locals:         0       0       0       0       0       0       0       0       0
  2820 ;;      Temps:          0       0       0       0       0       0       0       0       0
  2821 ;;      Totals:         0       0       0       0       0       0       0       0       0
  2822 ;;Total ram usage:        0 bytes
  2823 ;; Hardware stack levels used:    1
  2824 ;; Hardware stack levels required when called:    1
  2825 ;; This function calls:
  2826 ;;		_Servo_Cinco_0
  2827 ;;		_Servo_Cinco_15
  2828 ;;		_Servo_Cinco_30
  2829 ;;		_Servo_Seis_0
  2830 ;;		_Servo_Seis_15
  2831 ;;		_Servo_Seis_30
  2832 ;; This function is called by:
  2833 ;;		_main
  2834 ;; This function uses a non-reentrant model
  2835 ;;
  2836                           
  2837                           	psect	text27
  2838  001B16                     __ptext27:
  2839                           	opt callstack 0
  2840  001B16                     _Servos_60_30_Lento:
  2841                           	opt callstack 29
  2842  001B16                     
  2843                           ;Confi.c: 126:         Servo_Cinco_0(); Servo_Seis_0();
  2844  001B16  EC4A  F00D         	call	_Servo_Cinco_0	;wreg free
  2845  001B1A  EC02  F00D         	call	_Servo_Seis_0	;wreg free
  2846                           
  2847                           ;Confi.c: 127:         Servo_Cinco_15(); Servo_Seis_15();
  2848  001B1E  ECD7  F00A         	call	_Servo_Cinco_15	;wreg free
  2849  001B22  ECB1  F00A         	call	_Servo_Seis_15	;wreg free
  2850                           
  2851                           ;Confi.c: 128:         Servo_Cinco_30(); Servo_Seis_30();
  2852  001B26  EC02  F00C         	call	_Servo_Cinco_30	;wreg free
  2853  001B2A  ECDD  F00B         	call	_Servo_Seis_30	;wreg free
  2854                           
  2855                           ;Confi.c: 129:         Servo_Cinco_30(); Servo_Seis_30();
  2856  001B2E  EC02  F00C         	call	_Servo_Cinco_30	;wreg free
  2857  001B32  ECDD  F00B         	call	_Servo_Seis_30	;wreg free
  2858                           
  2859                           ;Confi.c: 130:         Servo_Cinco_15(); Servo_Seis_15();
  2860  001B36  ECD7  F00A         	call	_Servo_Cinco_15	;wreg free
  2861  001B3A  ECB1  F00A         	call	_Servo_Seis_15	;wreg free
  2862                           
  2863                           ;Confi.c: 131:         Servo_Cinco_0(); Servo_Seis_0();
  2864  001B3E  EC4A  F00D         	call	_Servo_Cinco_0	;wreg free
  2865  001B42  EC02  F00D         	call	_Servo_Seis_0	;wreg free
  2866  001B46  0012               	return		;funcret
  2867  001B48                     __end_of_Servos_60_30_Lento:
  2868                           	opt callstack 0
  2869                           
  2870 ;; *************** function _Servo_Seis_30 *****************
  2871 ;; Defined at:
  2872 ;;		line 630 in file "Servo.c"
  2873 ;; Parameters:    Size  Location     Type
  2874 ;;		None
  2875 ;; Auto vars:     Size  Location     Type
  2876 ;;  i               2    1[COMRAM] int 
  2877 ;; Return value:  Size  Location     Type
  2878 ;;                  1    wreg      void 
  2879 ;; Registers used:
  2880 ;;		wreg, status,2, status,0
  2881 ;; Tracked objects:
  2882 ;;		On entry : 0/0
  2883 ;;		On exit  : 0/0
  2884 ;;		Unchanged: 0/0
  2885 ;; Data sizes:     COMRAM   BANK0   BANK1   BANK2   BANK3   BANK4   BANK5   BANK6   BANK7
  2886 ;;      Params:         0       0       0       0       0       0       0       0       0
  2887 ;;      Locals:         2       0       0       0       0       0       0       0       0
  2888 ;;      Temps:          1       0       0       0       0       0       0       0       0
  2889 ;;      Totals:         3       0       0       0       0       0       0       0       0
  2890 ;;Total ram usage:        3 bytes
  2891 ;; Hardware stack levels used:    1
  2892 ;; This function calls:
  2893 ;;		Nothing
  2894 ;; This function is called by:
  2895 ;;		_Servos_60_30_Rapido
  2896 ;;		_Servos_60_60_Rapido
  2897 ;;		_Servos_60_30_Lento
  2898 ;;		_Servos_60_60_Lento
  2899 ;; This function uses a non-reentrant model
  2900 ;;
  2901                           
  2902                           	psect	text28
  2903  0017BA                     __ptext28:
  2904                           	opt callstack 0
  2905  0017BA                     _Servo_Seis_30:
  2906                           	opt callstack 29
  2907  0017BA                     
  2908                           ;Servo.c: 631:              for(int i=0;i<16;i++){
  2909  0017BA  0E00               	movlw	0
  2910  0017BC  6E03               	movwf	(Servo_Seis_30@i+1)^0,c
  2911  0017BE  0E00               	movlw	0
  2912  0017C0  6E02               	movwf	Servo_Seis_30@i^0,c
  2913  0017C2                     l499:
  2914                           
  2915                           ;Servo.c: 632:             LATBbits.LATB5=0;
  2916  0017C2  9A8A               	bcf	138,5,c	;volatile
  2917                           
  2918                           ;Servo.c: 633:             LATBbits.LATB5=1;
  2919  0017C4  8A8A               	bsf	138,5,c	;volatile
  2920  0017C6                     
  2921                           ;Servo.c: 634:             _delay((unsigned long)((0.830)*(8000000/4000.0)));
  2922  0017C6  0EED               	movlw	237
  2923  0017C8                     u1277:
  2924  0017C8  D000               	nop2	
  2925  0017CA  D000               	nop2	
  2926  0017CC  2EE8               	decfsz	wreg,f,c
  2927  0017CE  D7FC               	bra	u1277
  2928  0017D0  F000               	nop	
  2929  0017D2                     
  2930                           ;Servo.c: 635:             LATBbits.LATB5=0;
  2931  0017D2  9A8A               	bcf	138,5,c	;volatile
  2932                           
  2933                           ;Servo.c: 636:             _delay((unsigned long)((20-0.830)*(8000000/4000.0)));}
  2934  0017D4  0E32               	movlw	50
  2935  0017D6  6E01               	movwf	??_Servo_Seis_30^0,c
  2936  0017D8  0ECA               	movlw	202
  2937  0017DA                     u1287:
  2938  0017DA  2EE8               	decfsz	wreg,f,c
  2939  0017DC  D7FE               	bra	u1287
  2940  0017DE  2E01               	decfsz	??_Servo_Seis_30^0,f,c
  2941  0017E0  D7FC               	bra	u1287
  2942  0017E2  4A02               	infsnz	Servo_Seis_30@i^0,f,c
  2943  0017E4  2A03               	incf	(Servo_Seis_30@i+1)^0,f,c
  2944  0017E6  BE03               	btfsc	(Servo_Seis_30@i+1)^0,7,c
  2945  0017E8  EFFF  F00B         	goto	u281
  2946  0017EC  5003               	movf	(Servo_Seis_30@i+1)^0,w,c
  2947  0017EE  E109               	bnz	u280
  2948  0017F0  0E10               	movlw	16
  2949  0017F2  5C02               	subwf	Servo_Seis_30@i^0,w,c
  2950  0017F4  A0D8               	btfss	status,0,c
  2951  0017F6  EFFF  F00B         	goto	u281
  2952  0017FA  EF01  F00C         	goto	u280
  2953  0017FE                     u281:
  2954  0017FE  EFE1  F00B         	goto	l499
  2955  001802                     u280:
  2956  001802  0012               	return		;funcret
  2957  001804                     __end_of_Servo_Seis_30:
  2958                           	opt callstack 0
  2959                           
  2960 ;; *************** function _Servo_Seis_15 *****************
  2961 ;; Defined at:
  2962 ;;		line 621 in file "Servo.c"
  2963 ;; Parameters:    Size  Location     Type
  2964 ;;		None
  2965 ;; Auto vars:     Size  Location     Type
  2966 ;;  i               2    1[COMRAM] int 
  2967 ;; Return value:  Size  Location     Type
  2968 ;;                  1    wreg      void 
  2969 ;; Registers used:
  2970 ;;		wreg, status,2, status,0
  2971 ;; Tracked objects:
  2972 ;;		On entry : 0/0
  2973 ;;		On exit  : 0/0
  2974 ;;		Unchanged: 0/0
  2975 ;; Data sizes:     COMRAM   BANK0   BANK1   BANK2   BANK3   BANK4   BANK5   BANK6   BANK7
  2976 ;;      Params:         0       0       0       0       0       0       0       0       0
  2977 ;;      Locals:         2       0       0       0       0       0       0       0       0
  2978 ;;      Temps:          1       0       0       0       0       0       0       0       0
  2979 ;;      Totals:         3       0       0       0       0       0       0       0       0
  2980 ;;Total ram usage:        3 bytes
  2981 ;; Hardware stack levels used:    1
  2982 ;; This function calls:
  2983 ;;		Nothing
  2984 ;; This function is called by:
  2985 ;;		_Servos_60_30_Lento
  2986 ;;		_Servos_60_60_Lento
  2987 ;; This function uses a non-reentrant model
  2988 ;;
  2989                           
  2990                           	psect	text29
  2991  001562                     __ptext29:
  2992                           	opt callstack 0
  2993  001562                     _Servo_Seis_15:
  2994                           	opt callstack 29
  2995  001562                     
  2996                           ;Servo.c: 622:              for(int i=0;i<16;i++){
  2997  001562  0E00               	movlw	0
  2998  001564  6E03               	movwf	(Servo_Seis_15@i+1)^0,c
  2999  001566  0E00               	movlw	0
  3000  001568  6E02               	movwf	Servo_Seis_15@i^0,c
  3001  00156A                     l494:
  3002                           
  3003                           ;Servo.c: 623:             LATBbits.LATB5=0;
  3004  00156A  9A8A               	bcf	138,5,c	;volatile
  3005                           
  3006                           ;Servo.c: 624:             LATBbits.LATB5=1;
  3007  00156C  8A8A               	bsf	138,5,c	;volatile
  3008  00156E                     
  3009                           ;Servo.c: 625:             _delay((unsigned long)((0.670)*(8000000/4000.0)));
  3010  00156E  0EBF               	movlw	191
  3011  001570                     u1297:
  3012  001570  D000               	nop2	
  3013  001572  D000               	nop2	
  3014  001574  2EE8               	decfsz	wreg,f,c
  3015  001576  D7FC               	bra	u1297
  3016  001578  D000               	nop2	
  3017  00157A  F000               	nop	
  3018  00157C                     
  3019                           ;Servo.c: 626:             LATBbits.LATB5=0;
  3020  00157C  9A8A               	bcf	138,5,c	;volatile
  3021                           
  3022                           ;Servo.c: 627:             _delay((unsigned long)((20-0.670)*(8000000/4000.0)));}
  3023  00157E  0E33               	movlw	51
  3024  001580  6E01               	movwf	??_Servo_Seis_15^0,c
  3025  001582  0E34               	movlw	52
  3026  001584                     u1307:
  3027  001584  2EE8               	decfsz	wreg,f,c
  3028  001586  D7FE               	bra	u1307
  3029  001588  2E01               	decfsz	??_Servo_Seis_15^0,f,c
  3030  00158A  D7FC               	bra	u1307
  3031  00158C  4A02               	infsnz	Servo_Seis_15@i^0,f,c
  3032  00158E  2A03               	incf	(Servo_Seis_15@i+1)^0,f,c
  3033  001590  BE03               	btfsc	(Servo_Seis_15@i+1)^0,7,c
  3034  001592  EFD4  F00A         	goto	u321
  3035  001596  5003               	movf	(Servo_Seis_15@i+1)^0,w,c
  3036  001598  E109               	bnz	u320
  3037  00159A  0E10               	movlw	16
  3038  00159C  5C02               	subwf	Servo_Seis_15@i^0,w,c
  3039  00159E  A0D8               	btfss	status,0,c
  3040  0015A0  EFD4  F00A         	goto	u321
  3041  0015A4  EFD6  F00A         	goto	u320
  3042  0015A8                     u321:
  3043  0015A8  EFB5  F00A         	goto	l494
  3044  0015AC                     u320:
  3045  0015AC  0012               	return		;funcret
  3046  0015AE                     __end_of_Servo_Seis_15:
  3047                           	opt callstack 0
  3048                           
  3049 ;; *************** function _Servo_Cinco_30 *****************
  3050 ;; Defined at:
  3051 ;;		line 511 in file "Servo.c"
  3052 ;; Parameters:    Size  Location     Type
  3053 ;;		None
  3054 ;; Auto vars:     Size  Location     Type
  3055 ;;  i               2    1[COMRAM] int 
  3056 ;; Return value:  Size  Location     Type
  3057 ;;                  1    wreg      void 
  3058 ;; Registers used:
  3059 ;;		wreg, status,2, status,0
  3060 ;; Tracked objects:
  3061 ;;		On entry : 0/0
  3062 ;;		On exit  : 0/0
  3063 ;;		Unchanged: 0/0
  3064 ;; Data sizes:     COMRAM   BANK0   BANK1   BANK2   BANK3   BANK4   BANK5   BANK6   BANK7
  3065 ;;      Params:         0       0       0       0       0       0       0       0       0
  3066 ;;      Locals:         2       0       0       0       0       0       0       0       0
  3067 ;;      Temps:          1       0       0       0       0       0       0       0       0
  3068 ;;      Totals:         3       0       0       0       0       0       0       0       0
  3069 ;;Total ram usage:        3 bytes
  3070 ;; Hardware stack levels used:    1
  3071 ;; This function calls:
  3072 ;;		Nothing
  3073 ;; This function is called by:
  3074 ;;		_Servos_60_30_Rapido
  3075 ;;		_Servos_60_60_Rapido
  3076 ;;		_Servos_60_30_Lento
  3077 ;;		_Servos_60_60_Lento
  3078 ;; This function uses a non-reentrant model
  3079 ;;
  3080                           
  3081                           	psect	text30
  3082  001804                     __ptext30:
  3083                           	opt callstack 0
  3084  001804                     _Servo_Cinco_30:
  3085                           	opt callstack 29
  3086  001804                     
  3087                           ;Servo.c: 512:              for(int i=0;i<16;i++){
  3088  001804  0E00               	movlw	0
  3089  001806  6E03               	movwf	(Servo_Cinco_30@i+1)^0,c
  3090  001808  0E00               	movlw	0
  3091  00180A  6E02               	movwf	Servo_Cinco_30@i^0,c
  3092  00180C                     l434:
  3093                           
  3094                           ;Servo.c: 513:             LATBbits.LATB4=0;
  3095  00180C  988A               	bcf	138,4,c	;volatile
  3096                           
  3097                           ;Servo.c: 514:             LATBbits.LATB4=1;
  3098  00180E  888A               	bsf	138,4,c	;volatile
  3099  001810                     
  3100                           ;Servo.c: 515:             _delay((unsigned long)((0.830)*(8000000/4000.0)));
  3101  001810  0EED               	movlw	237
  3102  001812                     u1317:
  3103  001812  D000               	nop2	
  3104  001814  D000               	nop2	
  3105  001816  2EE8               	decfsz	wreg,f,c
  3106  001818  D7FC               	bra	u1317
  3107  00181A  F000               	nop	
  3108  00181C                     
  3109                           ;Servo.c: 516:             LATBbits.LATB4=0;
  3110  00181C  988A               	bcf	138,4,c	;volatile
  3111                           
  3112                           ;Servo.c: 517:             _delay((unsigned long)((20-0.830)*(8000000/4000.0)));}
  3113  00181E  0E32               	movlw	50
  3114  001820  6E01               	movwf	??_Servo_Cinco_30^0,c
  3115  001822  0ECA               	movlw	202
  3116  001824                     u1327:
  3117  001824  2EE8               	decfsz	wreg,f,c
  3118  001826  D7FE               	bra	u1327
  3119  001828  2E01               	decfsz	??_Servo_Cinco_30^0,f,c
  3120  00182A  D7FC               	bra	u1327
  3121  00182C  4A02               	infsnz	Servo_Cinco_30@i^0,f,c
  3122  00182E  2A03               	incf	(Servo_Cinco_30@i+1)^0,f,c
  3123  001830  BE03               	btfsc	(Servo_Cinco_30@i+1)^0,7,c
  3124  001832  EF24  F00C         	goto	u271
  3125  001836  5003               	movf	(Servo_Cinco_30@i+1)^0,w,c
  3126  001838  E109               	bnz	u270
  3127  00183A  0E10               	movlw	16
  3128  00183C  5C02               	subwf	Servo_Cinco_30@i^0,w,c
  3129  00183E  A0D8               	btfss	status,0,c
  3130  001840  EF24  F00C         	goto	u271
  3131  001844  EF26  F00C         	goto	u270
  3132  001848                     u271:
  3133  001848  EF06  F00C         	goto	l434
  3134  00184C                     u270:
  3135  00184C  0012               	return		;funcret
  3136  00184E                     __end_of_Servo_Cinco_30:
  3137                           	opt callstack 0
  3138                           
  3139 ;; *************** function _Servo_Cinco_15 *****************
  3140 ;; Defined at:
  3141 ;;		line 502 in file "Servo.c"
  3142 ;; Parameters:    Size  Location     Type
  3143 ;;		None
  3144 ;; Auto vars:     Size  Location     Type
  3145 ;;  i               2    1[COMRAM] int 
  3146 ;; Return value:  Size  Location     Type
  3147 ;;                  1    wreg      void 
  3148 ;; Registers used:
  3149 ;;		wreg, status,2, status,0
  3150 ;; Tracked objects:
  3151 ;;		On entry : 0/0
  3152 ;;		On exit  : 0/0
  3153 ;;		Unchanged: 0/0
  3154 ;; Data sizes:     COMRAM   BANK0   BANK1   BANK2   BANK3   BANK4   BANK5   BANK6   BANK7
  3155 ;;      Params:         0       0       0       0       0       0       0       0       0
  3156 ;;      Locals:         2       0       0       0       0       0       0       0       0
  3157 ;;      Temps:          1       0       0       0       0       0       0       0       0
  3158 ;;      Totals:         3       0       0       0       0       0       0       0       0
  3159 ;;Total ram usage:        3 bytes
  3160 ;; Hardware stack levels used:    1
  3161 ;; This function calls:
  3162 ;;		Nothing
  3163 ;; This function is called by:
  3164 ;;		_Servos_60_30_Lento
  3165 ;;		_Servos_60_60_Lento
  3166 ;; This function uses a non-reentrant model
  3167 ;;
  3168                           
  3169                           	psect	text31
  3170  0015AE                     __ptext31:
  3171                           	opt callstack 0
  3172  0015AE                     _Servo_Cinco_15:
  3173                           	opt callstack 29
  3174  0015AE                     
  3175                           ;Servo.c: 503:              for(int i=0;i<16;i++){
  3176  0015AE  0E00               	movlw	0
  3177  0015B0  6E03               	movwf	(Servo_Cinco_15@i+1)^0,c
  3178  0015B2  0E00               	movlw	0
  3179  0015B4  6E02               	movwf	Servo_Cinco_15@i^0,c
  3180  0015B6                     l429:
  3181                           
  3182                           ;Servo.c: 504:             LATBbits.LATB4=0;
  3183  0015B6  988A               	bcf	138,4,c	;volatile
  3184                           
  3185                           ;Servo.c: 505:             LATBbits.LATB4=1;
  3186  0015B8  888A               	bsf	138,4,c	;volatile
  3187  0015BA                     
  3188                           ;Servo.c: 506:             _delay((unsigned long)((0.670)*(8000000/4000.0)));
  3189  0015BA  0EBF               	movlw	191
  3190  0015BC                     u1337:
  3191  0015BC  D000               	nop2	
  3192  0015BE  D000               	nop2	
  3193  0015C0  2EE8               	decfsz	wreg,f,c
  3194  0015C2  D7FC               	bra	u1337
  3195  0015C4  D000               	nop2	
  3196  0015C6  F000               	nop	
  3197  0015C8                     
  3198                           ;Servo.c: 507:             LATBbits.LATB4=0;
  3199  0015C8  988A               	bcf	138,4,c	;volatile
  3200                           
  3201                           ;Servo.c: 508:             _delay((unsigned long)((20-0.670)*(8000000/4000.0)));}
  3202  0015CA  0E33               	movlw	51
  3203  0015CC  6E01               	movwf	??_Servo_Cinco_15^0,c
  3204  0015CE  0E34               	movlw	52
  3205  0015D0                     u1347:
  3206  0015D0  2EE8               	decfsz	wreg,f,c
  3207  0015D2  D7FE               	bra	u1347
  3208  0015D4  2E01               	decfsz	??_Servo_Cinco_15^0,f,c
  3209  0015D6  D7FC               	bra	u1347
  3210  0015D8  4A02               	infsnz	Servo_Cinco_15@i^0,f,c
  3211  0015DA  2A03               	incf	(Servo_Cinco_15@i+1)^0,f,c
  3212  0015DC  BE03               	btfsc	(Servo_Cinco_15@i+1)^0,7,c
  3213  0015DE  EFFA  F00A         	goto	u311
  3214  0015E2  5003               	movf	(Servo_Cinco_15@i+1)^0,w,c
  3215  0015E4  E109               	bnz	u310
  3216  0015E6  0E10               	movlw	16
  3217  0015E8  5C02               	subwf	Servo_Cinco_15@i^0,w,c
  3218  0015EA  A0D8               	btfss	status,0,c
  3219  0015EC  EFFA  F00A         	goto	u311
  3220  0015F0  EFFC  F00A         	goto	u310
  3221  0015F4                     u311:
  3222  0015F4  EFDB  F00A         	goto	l429
  3223  0015F8                     u310:
  3224  0015F8  0012               	return		;funcret
  3225  0015FA                     __end_of_Servo_Cinco_15:
  3226                           	opt callstack 0
  3227                           
  3228 ;; *************** function _Servos_150_90 *****************
  3229 ;; Defined at:
  3230 ;;		line 49 in file "Confi.c"
  3231 ;; Parameters:    Size  Location     Type
  3232 ;;		None
  3233 ;; Auto vars:     Size  Location     Type
  3234 ;;		None
  3235 ;; Return value:  Size  Location     Type
  3236 ;;                  1    wreg      void 
  3237 ;; Registers used:
  3238 ;;		wreg, status,2, status,0, cstack
  3239 ;; Tracked objects:
  3240 ;;		On entry : 0/0
  3241 ;;		On exit  : 0/0
  3242 ;;		Unchanged: 0/0
  3243 ;; Data sizes:     COMRAM   BANK0   BANK1   BANK2   BANK3   BANK4   BANK5   BANK6   BANK7
  3244 ;;      Params:         0       0       0       0       0       0       0       0       0
  3245 ;;      Locals:         0       0       0       0       0       0       0       0       0
  3246 ;;      Temps:          0       0       0       0       0       0       0       0       0
  3247 ;;      Totals:         0       0       0       0       0       0       0       0       0
  3248 ;;Total ram usage:        0 bytes
  3249 ;; Hardware stack levels used:    1
  3250 ;; Hardware stack levels required when called:    1
  3251 ;; This function calls:
  3252 ;;		_Servo_Cuatro_105
  3253 ;;		_Servo_Cuatro_120
  3254 ;;		_Servo_Cuatro_30
  3255 ;;		_Servo_Cuatro_45
  3256 ;;		_Servo_Cuatro_60
  3257 ;;		_Servo_Cuatro_75
  3258 ;;		_Servo_Cuatro_90
  3259 ;;		_Servo_Tres_105
  3260 ;;		_Servo_Tres_120
  3261 ;;		_Servo_Tres_30
  3262 ;;		_Servo_Tres_45
  3263 ;;		_Servo_Tres_60
  3264 ;;		_Servo_Tres_75
  3265 ;;		_Servo_Tres_90
  3266 ;; This function is called by:
  3267 ;;		_main
  3268 ;; This function uses a non-reentrant model
  3269 ;;
  3270                           
  3271                           	psect	text32
  3272  000B04                     __ptext32:
  3273                           	opt callstack 0
  3274  000B04                     _Servos_150_90:
  3275                           	opt callstack 29
  3276  000B04                     
  3277                           ;Confi.c: 50:         Servo_Tres_75(); Servo_Cuatro_75();
  3278  000B04  ECBB  F006         	call	_Servo_Tres_75	;wreg free
  3279  000B08  ECE3  F006         	call	_Servo_Cuatro_75	;wreg free
  3280                           
  3281                           ;Confi.c: 51:         Servo_Tres_90(); Servo_Cuatro_90();
  3282  000B0C  ECDF  F008         	call	_Servo_Tres_90	;wreg free
  3283  000B10  ECA2  F009         	call	_Servo_Cuatro_90	;wreg free
  3284                           
  3285                           ;Confi.c: 52:         Servo_Tres_105(); Servo_Cuatro_105();
  3286  000B14  EC6B  F006         	call	_Servo_Tres_105	;wreg free
  3287  000B18  EC93  F006         	call	_Servo_Cuatro_105	;wreg free
  3288                           
  3289                           ;Confi.c: 53:         Servo_Tres_120(); Servo_Cuatro_120();
  3290  000B1C  EC7B  F009         	call	_Servo_Tres_120	;wreg free
  3291  000B20  EC3E  F00A         	call	_Servo_Cuatro_120	;wreg free
  3292                           
  3293                           ;Confi.c: 54:         Servo_Tres_105(); Servo_Cuatro_105();
  3294  000B24  EC6B  F006         	call	_Servo_Tres_105	;wreg free
  3295  000B28  EC93  F006         	call	_Servo_Cuatro_105	;wreg free
  3296                           
  3297                           ;Confi.c: 55:         Servo_Tres_90(); Servo_Cuatro_90();
  3298  000B2C  ECDF  F008         	call	_Servo_Tres_90	;wreg free
  3299  000B30  ECA2  F009         	call	_Servo_Cuatro_90	;wreg free
  3300                           
  3301                           ;Confi.c: 56:         Servo_Tres_75(); Servo_Cuatro_75();
  3302  000B34  ECBB  F006         	call	_Servo_Tres_75	;wreg free
  3303  000B38  ECE3  F006         	call	_Servo_Cuatro_75	;wreg free
  3304                           
  3305                           ;Confi.c: 57:         Servo_Tres_60(); Servo_Cuatro_60();
  3306  000B3C  EC06  F009         	call	_Servo_Tres_60	;wreg free
  3307  000B40  ECC9  F009         	call	_Servo_Cuatro_60	;wreg free
  3308                           
  3309                           ;Confi.c: 58:         Servo_Tres_45(); Servo_Cuatro_45();
  3310  000B44  EC2D  F009         	call	_Servo_Tres_45	;wreg free
  3311  000B48  ECF0  F009         	call	_Servo_Cuatro_45	;wreg free
  3312                           
  3313                           ;Confi.c: 59:         Servo_Tres_30(); Servo_Cuatro_30();
  3314  000B4C  EC4C  F00C         	call	_Servo_Tres_30	;wreg free
  3315  000B50  EC71  F00C         	call	_Servo_Cuatro_30	;wreg free
  3316                           
  3317                           ;Confi.c: 60:         Servo_Tres_45(); Servo_Cuatro_45();
  3318  000B54  EC2D  F009         	call	_Servo_Tres_45	;wreg free
  3319  000B58  ECF0  F009         	call	_Servo_Cuatro_45	;wreg free
  3320                           
  3321                           ;Confi.c: 61:         Servo_Tres_60(); Servo_Cuatro_60();
  3322  000B5C  EC06  F009         	call	_Servo_Tres_60	;wreg free
  3323  000B60  ECC9  F009         	call	_Servo_Cuatro_60	;wreg free
  3324                           
  3325                           ;Confi.c: 62:         Servo_Tres_75(); Servo_Cuatro_75();
  3326  000B64  ECBB  F006         	call	_Servo_Tres_75	;wreg free
  3327  000B68  ECE3  F006         	call	_Servo_Cuatro_75	;wreg free
  3328  000B6C  0012               	return		;funcret
  3329  000B6E                     __end_of_Servos_150_90:
  3330                           	opt callstack 0
  3331                           
  3332 ;; *************** function _Servos_150_60 *****************
  3333 ;; Defined at:
  3334 ;;		line 33 in file "Confi.c"
  3335 ;; Parameters:    Size  Location     Type
  3336 ;;		None
  3337 ;; Auto vars:     Size  Location     Type
  3338 ;;		None
  3339 ;; Return value:  Size  Location     Type
  3340 ;;                  1    wreg      void 
  3341 ;; Registers used:
  3342 ;;		wreg, status,2, status,0, cstack
  3343 ;; Tracked objects:
  3344 ;;		On entry : 0/0
  3345 ;;		On exit  : 0/0
  3346 ;;		Unchanged: 0/0
  3347 ;; Data sizes:     COMRAM   BANK0   BANK1   BANK2   BANK3   BANK4   BANK5   BANK6   BANK7
  3348 ;;      Params:         0       0       0       0       0       0       0       0       0
  3349 ;;      Locals:         0       0       0       0       0       0       0       0       0
  3350 ;;      Temps:          0       0       0       0       0       0       0       0       0
  3351 ;;      Totals:         0       0       0       0       0       0       0       0       0
  3352 ;;Total ram usage:        0 bytes
  3353 ;; Hardware stack levels used:    1
  3354 ;; Hardware stack levels required when called:    1
  3355 ;; This function calls:
  3356 ;;		_Servo_Cuatro_105
  3357 ;;		_Servo_Cuatro_120
  3358 ;;		_Servo_Cuatro_30
  3359 ;;		_Servo_Cuatro_45
  3360 ;;		_Servo_Cuatro_60
  3361 ;;		_Servo_Cuatro_75
  3362 ;;		_Servo_Cuatro_90
  3363 ;;		_Servo_Tres_105
  3364 ;;		_Servo_Tres_120
  3365 ;;		_Servo_Tres_30
  3366 ;;		_Servo_Tres_45
  3367 ;;		_Servo_Tres_60
  3368 ;;		_Servo_Tres_75
  3369 ;;		_Servo_Tres_90
  3370 ;; This function is called by:
  3371 ;;		_main
  3372 ;; This function uses a non-reentrant model
  3373 ;;
  3374                           
  3375                           	psect	text33
  3376  000B6E                     __ptext33:
  3377                           	opt callstack 0
  3378  000B6E                     _Servos_150_60:
  3379                           	opt callstack 29
  3380  000B6E                     
  3381                           ;Confi.c: 34:         Servo_Tres_75(); Servo_Cuatro_75();
  3382  000B6E  ECBB  F006         	call	_Servo_Tres_75	;wreg free
  3383  000B72  ECE3  F006         	call	_Servo_Cuatro_75	;wreg free
  3384                           
  3385                           ;Confi.c: 35:         Servo_Tres_90(); Servo_Cuatro_90();
  3386  000B76  ECDF  F008         	call	_Servo_Tres_90	;wreg free
  3387  000B7A  ECA2  F009         	call	_Servo_Cuatro_90	;wreg free
  3388                           
  3389                           ;Confi.c: 36:         Servo_Tres_105(); Servo_Cuatro_105();
  3390  000B7E  EC6B  F006         	call	_Servo_Tres_105	;wreg free
  3391  000B82  EC93  F006         	call	_Servo_Cuatro_105	;wreg free
  3392                           
  3393                           ;Confi.c: 37:         Servo_Tres_120(); Servo_Cuatro_120();
  3394  000B86  EC7B  F009         	call	_Servo_Tres_120	;wreg free
  3395  000B8A  EC3E  F00A         	call	_Servo_Cuatro_120	;wreg free
  3396                           
  3397                           ;Confi.c: 38:         Servo_Tres_105(); Servo_Cuatro_105();
  3398  000B8E  EC6B  F006         	call	_Servo_Tres_105	;wreg free
  3399  000B92  EC93  F006         	call	_Servo_Cuatro_105	;wreg free
  3400                           
  3401                           ;Confi.c: 39:         Servo_Tres_90(); Servo_Cuatro_90();
  3402  000B96  ECDF  F008         	call	_Servo_Tres_90	;wreg free
  3403  000B9A  ECA2  F009         	call	_Servo_Cuatro_90	;wreg free
  3404                           
  3405                           ;Confi.c: 40:         Servo_Tres_75(); Servo_Cuatro_75();
  3406  000B9E  ECBB  F006         	call	_Servo_Tres_75	;wreg free
  3407  000BA2  ECE3  F006         	call	_Servo_Cuatro_75	;wreg free
  3408                           
  3409                           ;Confi.c: 41:         Servo_Tres_60(); Servo_Cuatro_60();
  3410  000BA6  EC06  F009         	call	_Servo_Tres_60	;wreg free
  3411  000BAA  ECC9  F009         	call	_Servo_Cuatro_60	;wreg free
  3412                           
  3413                           ;Confi.c: 42:         Servo_Tres_45(); Servo_Cuatro_45();
  3414  000BAE  EC2D  F009         	call	_Servo_Tres_45	;wreg free
  3415  000BB2  ECF0  F009         	call	_Servo_Cuatro_45	;wreg free
  3416                           
  3417                           ;Confi.c: 43:         Servo_Tres_30(); Servo_Cuatro_30();
  3418  000BB6  EC4C  F00C         	call	_Servo_Tres_30	;wreg free
  3419  000BBA  EC71  F00C         	call	_Servo_Cuatro_30	;wreg free
  3420                           
  3421                           ;Confi.c: 44:         Servo_Tres_45(); Servo_Cuatro_45();
  3422  000BBE  EC2D  F009         	call	_Servo_Tres_45	;wreg free
  3423  000BC2  ECF0  F009         	call	_Servo_Cuatro_45	;wreg free
  3424                           
  3425                           ;Confi.c: 45:         Servo_Tres_60(); Servo_Cuatro_60();
  3426  000BC6  EC06  F009         	call	_Servo_Tres_60	;wreg free
  3427  000BCA  ECC9  F009         	call	_Servo_Cuatro_60	;wreg free
  3428                           
  3429                           ;Confi.c: 46:         Servo_Tres_75(); Servo_Cuatro_75();
  3430  000BCE  ECBB  F006         	call	_Servo_Tres_75	;wreg free
  3431  000BD2  ECE3  F006         	call	_Servo_Cuatro_75	;wreg free
  3432  000BD6  0012               	return		;funcret
  3433  000BD8                     __end_of_Servos_150_60:
  3434                           	opt callstack 0
  3435                           
  3436 ;; *************** function _Servos_150_30 *****************
  3437 ;; Defined at:
  3438 ;;		line 21 in file "Confi.c"
  3439 ;; Parameters:    Size  Location     Type
  3440 ;;		None
  3441 ;; Auto vars:     Size  Location     Type
  3442 ;;		None
  3443 ;; Return value:  Size  Location     Type
  3444 ;;                  1    wreg      void 
  3445 ;; Registers used:
  3446 ;;		wreg, status,2, status,0, cstack
  3447 ;; Tracked objects:
  3448 ;;		On entry : 0/0
  3449 ;;		On exit  : 0/0
  3450 ;;		Unchanged: 0/0
  3451 ;; Data sizes:     COMRAM   BANK0   BANK1   BANK2   BANK3   BANK4   BANK5   BANK6   BANK7
  3452 ;;      Params:         0       0       0       0       0       0       0       0       0
  3453 ;;      Locals:         0       0       0       0       0       0       0       0       0
  3454 ;;      Temps:          0       0       0       0       0       0       0       0       0
  3455 ;;      Totals:         0       0       0       0       0       0       0       0       0
  3456 ;;Total ram usage:        0 bytes
  3457 ;; Hardware stack levels used:    1
  3458 ;; Hardware stack levels required when called:    1
  3459 ;; This function calls:
  3460 ;;		_Servo_Cuatro_105
  3461 ;;		_Servo_Cuatro_45
  3462 ;;		_Servo_Cuatro_60
  3463 ;;		_Servo_Cuatro_75
  3464 ;;		_Servo_Cuatro_90
  3465 ;;		_Servo_Tres_105
  3466 ;;		_Servo_Tres_45
  3467 ;;		_Servo_Tres_60
  3468 ;;		_Servo_Tres_75
  3469 ;;		_Servo_Tres_90
  3470 ;; This function is called by:
  3471 ;;		_main
  3472 ;; This function uses a non-reentrant model
  3473 ;;
  3474                           
  3475                           	psect	text34
  3476  00184E                     __ptext34:
  3477                           	opt callstack 0
  3478  00184E                     _Servos_150_30:
  3479                           	opt callstack 29
  3480  00184E                     
  3481                           ;Confi.c: 22:        Servo_Tres_75(); Servo_Cuatro_75();
  3482  00184E  ECBB  F006         	call	_Servo_Tres_75	;wreg free
  3483  001852  ECE3  F006         	call	_Servo_Cuatro_75	;wreg free
  3484                           
  3485                           ;Confi.c: 23:         Servo_Tres_90(); Servo_Cuatro_90();
  3486  001856  ECDF  F008         	call	_Servo_Tres_90	;wreg free
  3487  00185A  ECA2  F009         	call	_Servo_Cuatro_90	;wreg free
  3488                           
  3489                           ;Confi.c: 24:         Servo_Tres_105(); Servo_Cuatro_105();
  3490  00185E  EC6B  F006         	call	_Servo_Tres_105	;wreg free
  3491  001862  EC93  F006         	call	_Servo_Cuatro_105	;wreg free
  3492                           
  3493                           ;Confi.c: 25:         Servo_Tres_90(); Servo_Cuatro_90();
  3494  001866  ECDF  F008         	call	_Servo_Tres_90	;wreg free
  3495  00186A  ECA2  F009         	call	_Servo_Cuatro_90	;wreg free
  3496                           
  3497                           ;Confi.c: 26:         Servo_Tres_75(); Servo_Cuatro_75();
  3498  00186E  ECBB  F006         	call	_Servo_Tres_75	;wreg free
  3499  001872  ECE3  F006         	call	_Servo_Cuatro_75	;wreg free
  3500                           
  3501                           ;Confi.c: 27:         Servo_Tres_60(); Servo_Cuatro_60();
  3502  001876  EC06  F009         	call	_Servo_Tres_60	;wreg free
  3503  00187A  ECC9  F009         	call	_Servo_Cuatro_60	;wreg free
  3504                           
  3505                           ;Confi.c: 28:         Servo_Tres_45(); Servo_Cuatro_45();
  3506  00187E  EC2D  F009         	call	_Servo_Tres_45	;wreg free
  3507  001882  ECF0  F009         	call	_Servo_Cuatro_45	;wreg free
  3508                           
  3509                           ;Confi.c: 29:         Servo_Tres_60(); Servo_Cuatro_60();
  3510  001886  EC06  F009         	call	_Servo_Tres_60	;wreg free
  3511  00188A  ECC9  F009         	call	_Servo_Cuatro_60	;wreg free
  3512                           
  3513                           ;Confi.c: 30:         Servo_Tres_75(); Servo_Cuatro_75();
  3514  00188E  ECBB  F006         	call	_Servo_Tres_75	;wreg free
  3515  001892  ECE3  F006         	call	_Servo_Cuatro_75	;wreg free
  3516  001896  0012               	return		;funcret
  3517  001898                     __end_of_Servos_150_30:
  3518                           	opt callstack 0
  3519                           
  3520 ;; *************** function _Servos_150_150 *****************
  3521 ;; Defined at:
  3522 ;;		line 85 in file "Confi.c"
  3523 ;; Parameters:    Size  Location     Type
  3524 ;;		None
  3525 ;; Auto vars:     Size  Location     Type
  3526 ;;		None
  3527 ;; Return value:  Size  Location     Type
  3528 ;;                  1    wreg      void 
  3529 ;; Registers used:
  3530 ;;		wreg, status,2, status,0, cstack
  3531 ;; Tracked objects:
  3532 ;;		On entry : 0/0
  3533 ;;		On exit  : 0/0
  3534 ;;		Unchanged: 0/0
  3535 ;; Data sizes:     COMRAM   BANK0   BANK1   BANK2   BANK3   BANK4   BANK5   BANK6   BANK7
  3536 ;;      Params:         0       0       0       0       0       0       0       0       0
  3537 ;;      Locals:         0       0       0       0       0       0       0       0       0
  3538 ;;      Temps:          0       0       0       0       0       0       0       0       0
  3539 ;;      Totals:         0       0       0       0       0       0       0       0       0
  3540 ;;Total ram usage:        0 bytes
  3541 ;; Hardware stack levels used:    1
  3542 ;; Hardware stack levels required when called:    1
  3543 ;; This function calls:
  3544 ;;		_Servo_Cuatro_0
  3545 ;;		_Servo_Cuatro_105
  3546 ;;		_Servo_Cuatro_120
  3547 ;;		_Servo_Cuatro_135
  3548 ;;		_Servo_Cuatro_15
  3549 ;;		_Servo_Cuatro_150
  3550 ;;		_Servo_Cuatro_30
  3551 ;;		_Servo_Cuatro_45
  3552 ;;		_Servo_Cuatro_60
  3553 ;;		_Servo_Cuatro_75
  3554 ;;		_Servo_Cuatro_90
  3555 ;;		_Servo_Tres_0
  3556 ;;		_Servo_Tres_105
  3557 ;;		_Servo_Tres_120
  3558 ;;		_Servo_Tres_135
  3559 ;;		_Servo_Tres_15
  3560 ;;		_Servo_Tres_150
  3561 ;;		_Servo_Tres_30
  3562 ;;		_Servo_Tres_45
  3563 ;;		_Servo_Tres_60
  3564 ;;		_Servo_Tres_75
  3565 ;;		_Servo_Tres_90
  3566 ;; This function is called by:
  3567 ;;		_main
  3568 ;; This function uses a non-reentrant model
  3569 ;;
  3570                           
  3571                           	psect	text35
  3572  000966                     __ptext35:
  3573                           	opt callstack 0
  3574  000966                     _Servos_150_150:
  3575                           	opt callstack 29
  3576  000966                     
  3577                           ;Confi.c: 86:         Servo_Tres_75(); Servo_Cuatro_75();
  3578  000966  ECBB  F006         	call	_Servo_Tres_75	;wreg free
  3579  00096A  ECE3  F006         	call	_Servo_Cuatro_75	;wreg free
  3580                           
  3581                           ;Confi.c: 87:         Servo_Tres_90(); Servo_Cuatro_90();
  3582  00096E  ECDF  F008         	call	_Servo_Tres_90	;wreg free
  3583  000972  ECA2  F009         	call	_Servo_Cuatro_90	;wreg free
  3584                           
  3585                           ;Confi.c: 88:         Servo_Tres_105(); Servo_Cuatro_105();
  3586  000976  EC6B  F006         	call	_Servo_Tres_105	;wreg free
  3587  00097A  EC93  F006         	call	_Servo_Cuatro_105	;wreg free
  3588                           
  3589                           ;Confi.c: 89:         Servo_Tres_120(); Servo_Cuatro_120();
  3590  00097E  EC7B  F009         	call	_Servo_Tres_120	;wreg free
  3591  000982  EC3E  F00A         	call	_Servo_Cuatro_120	;wreg free
  3592                           
  3593                           ;Confi.c: 90:         Servo_Tres_135(); Servo_Cuatro_135();
  3594  000986  EC54  F009         	call	_Servo_Tres_135	;wreg free
  3595  00098A  EC17  F00A         	call	_Servo_Cuatro_135	;wreg free
  3596                           
  3597                           ;Confi.c: 91:         Servo_Tres_150(); Servo_Cuatro_150();
  3598  00098E  EC91  F008         	call	_Servo_Tres_150	;wreg free
  3599  000992  ECB8  F008         	call	_Servo_Cuatro_150	;wreg free
  3600                           
  3601                           ;Confi.c: 92:         Servo_Tres_135(); Servo_Cuatro_135();
  3602  000996  EC54  F009         	call	_Servo_Tres_135	;wreg free
  3603  00099A  EC17  F00A         	call	_Servo_Cuatro_135	;wreg free
  3604                           
  3605                           ;Confi.c: 93:         Servo_Tres_120(); Servo_Cuatro_120();
  3606  00099E  EC7B  F009         	call	_Servo_Tres_120	;wreg free
  3607  0009A2  EC3E  F00A         	call	_Servo_Cuatro_120	;wreg free
  3608                           
  3609                           ;Confi.c: 94:         Servo_Tres_105(); Servo_Cuatro_105();
  3610  0009A6  EC6B  F006         	call	_Servo_Tres_105	;wreg free
  3611  0009AA  EC93  F006         	call	_Servo_Cuatro_105	;wreg free
  3612                           
  3613                           ;Confi.c: 95:         Servo_Tres_90(); Servo_Cuatro_90();
  3614  0009AE  ECDF  F008         	call	_Servo_Tres_90	;wreg free
  3615  0009B2  ECA2  F009         	call	_Servo_Cuatro_90	;wreg free
  3616                           
  3617                           ;Confi.c: 96:         Servo_Tres_75(); Servo_Cuatro_75();
  3618  0009B6  ECBB  F006         	call	_Servo_Tres_75	;wreg free
  3619  0009BA  ECE3  F006         	call	_Servo_Cuatro_75	;wreg free
  3620                           
  3621                           ;Confi.c: 97:         Servo_Tres_60(); Servo_Cuatro_60();
  3622  0009BE  EC06  F009         	call	_Servo_Tres_60	;wreg free
  3623  0009C2  ECC9  F009         	call	_Servo_Cuatro_60	;wreg free
  3624                           
  3625                           ;Confi.c: 98:         Servo_Tres_45(); Servo_Cuatro_45();
  3626  0009C6  EC2D  F009         	call	_Servo_Tres_45	;wreg free
  3627  0009CA  ECF0  F009         	call	_Servo_Cuatro_45	;wreg free
  3628                           
  3629                           ;Confi.c: 99:         Servo_Tres_30(); Servo_Cuatro_30();
  3630  0009CE  EC4C  F00C         	call	_Servo_Tres_30	;wreg free
  3631  0009D2  EC71  F00C         	call	_Servo_Cuatro_30	;wreg free
  3632                           
  3633                           ;Confi.c: 100:         Servo_Tres_15(); Servo_Cuatro_15();
  3634  0009D6  ECFD  F00A         	call	_Servo_Tres_15	;wreg free
  3635  0009DA  EC23  F00B         	call	_Servo_Cuatro_15	;wreg free
  3636                           
  3637                           ;Confi.c: 101:         Servo_Tres_0(); Servo_Cuatro_0();
  3638  0009DE  EC96  F00C         	call	_Servo_Tres_0	;wreg free
  3639  0009E2  ECBA  F00C         	call	_Servo_Cuatro_0	;wreg free
  3640                           
  3641                           ;Confi.c: 102:         Servo_Tres_15(); Servo_Cuatro_15();
  3642  0009E6  ECFD  F00A         	call	_Servo_Tres_15	;wreg free
  3643  0009EA  EC23  F00B         	call	_Servo_Cuatro_15	;wreg free
  3644                           
  3645                           ;Confi.c: 103:         Servo_Tres_30(); Servo_Cuatro_30();
  3646  0009EE  EC4C  F00C         	call	_Servo_Tres_30	;wreg free
  3647  0009F2  EC71  F00C         	call	_Servo_Cuatro_30	;wreg free
  3648                           
  3649                           ;Confi.c: 104:         Servo_Tres_45(); Servo_Cuatro_45();
  3650  0009F6  EC2D  F009         	call	_Servo_Tres_45	;wreg free
  3651  0009FA  ECF0  F009         	call	_Servo_Cuatro_45	;wreg free
  3652                           
  3653                           ;Confi.c: 105:         Servo_Tres_60(); Servo_Cuatro_60();
  3654  0009FE  EC06  F009         	call	_Servo_Tres_60	;wreg free
  3655  000A02  ECC9  F009         	call	_Servo_Cuatro_60	;wreg free
  3656                           
  3657                           ;Confi.c: 106:         Servo_Tres_75(); Servo_Cuatro_75();
  3658  000A06  ECBB  F006         	call	_Servo_Tres_75	;wreg free
  3659  000A0A  ECE3  F006         	call	_Servo_Cuatro_75	;wreg free
  3660  000A0E  0012               	return		;funcret
  3661  000A10                     __end_of_Servos_150_150:
  3662                           	opt callstack 0
  3663                           
  3664 ;; *************** function _Servo_Tres_150 *****************
  3665 ;; Defined at:
  3666 ;;		line 345 in file "Servo.c"
  3667 ;; Parameters:    Size  Location     Type
  3668 ;;		None
  3669 ;; Auto vars:     Size  Location     Type
  3670 ;;  i               2    1[COMRAM] int 
  3671 ;; Return value:  Size  Location     Type
  3672 ;;                  1    wreg      void 
  3673 ;; Registers used:
  3674 ;;		wreg, status,2, status,0
  3675 ;; Tracked objects:
  3676 ;;		On entry : 0/0
  3677 ;;		On exit  : 0/0
  3678 ;;		Unchanged: 0/0
  3679 ;; Data sizes:     COMRAM   BANK0   BANK1   BANK2   BANK3   BANK4   BANK5   BANK6   BANK7
  3680 ;;      Params:         0       0       0       0       0       0       0       0       0
  3681 ;;      Locals:         2       0       0       0       0       0       0       0       0
  3682 ;;      Temps:          1       0       0       0       0       0       0       0       0
  3683 ;;      Totals:         3       0       0       0       0       0       0       0       0
  3684 ;;Total ram usage:        3 bytes
  3685 ;; Hardware stack levels used:    1
  3686 ;; This function calls:
  3687 ;;		Nothing
  3688 ;; This function is called by:
  3689 ;;		_Servos_150_150
  3690 ;; This function uses a non-reentrant model
  3691 ;;
  3692                           
  3693                           	psect	text36
  3694  001122                     __ptext36:
  3695                           	opt callstack 0
  3696  001122                     _Servo_Tres_150:
  3697                           	opt callstack 29
  3698  001122                     
  3699                           ;Servo.c: 346:              for(int i=0;i<16;i++){
  3700  001122  0E00               	movlw	0
  3701  001124  6E03               	movwf	(Servo_Tres_150@i+1)^0,c
  3702  001126  0E00               	movlw	0
  3703  001128  6E02               	movwf	Servo_Tres_150@i^0,c
  3704  00112A                     l344:
  3705                           
  3706                           ;Servo.c: 347:             LATBbits.LATB2=0;
  3707  00112A  948A               	bcf	138,2,c	;volatile
  3708                           
  3709                           ;Servo.c: 348:             LATBbits.LATB2=1;
  3710  00112C  848A               	bsf	138,2,c	;volatile
  3711  00112E                     
  3712                           ;Servo.c: 349:             _delay((unsigned long)((2.170)*(8000000/4000.0)));
  3713  00112E  0E06               	movlw	6
  3714  001130  6E01               	movwf	??_Servo_Tres_150^0,c
  3715  001132  0EA2               	movlw	162
  3716  001134                     u1357:
  3717  001134  2EE8               	decfsz	wreg,f,c
  3718  001136  D7FE               	bra	u1357
  3719  001138  2E01               	decfsz	??_Servo_Tres_150^0,f,c
  3720  00113A  D7FC               	bra	u1357
  3721  00113C                     
  3722                           ;Servo.c: 350:             LATBbits.LATB2=0;
  3723  00113C  948A               	bcf	138,2,c	;volatile
  3724                           
  3725                           ;Servo.c: 351:             _delay((unsigned long)((20-2.170)*(8000000/4000.0)));}
  3726  00113E  0E2F               	movlw	47
  3727  001140  6E01               	movwf	??_Servo_Tres_150^0,c
  3728  001142  0E4E               	movlw	78
  3729  001144                     u1367:
  3730  001144  2EE8               	decfsz	wreg,f,c
  3731  001146  D7FE               	bra	u1367
  3732  001148  2E01               	decfsz	??_Servo_Tres_150^0,f,c
  3733  00114A  D7FC               	bra	u1367
  3734  00114C  D000               	nop2	
  3735  00114E  4A02               	infsnz	Servo_Tres_150@i^0,f,c
  3736  001150  2A03               	incf	(Servo_Tres_150@i+1)^0,f,c
  3737  001152  BE03               	btfsc	(Servo_Tres_150@i+1)^0,7,c
  3738  001154  EFB5  F008         	goto	u231
  3739  001158  5003               	movf	(Servo_Tres_150@i+1)^0,w,c
  3740  00115A  E109               	bnz	u230
  3741  00115C  0E10               	movlw	16
  3742  00115E  5C02               	subwf	Servo_Tres_150@i^0,w,c
  3743  001160  A0D8               	btfss	status,0,c
  3744  001162  EFB5  F008         	goto	u231
  3745  001166  EFB7  F008         	goto	u230
  3746  00116A                     u231:
  3747  00116A  EF95  F008         	goto	l344
  3748  00116E                     u230:
  3749  00116E  0012               	return		;funcret
  3750  001170                     __end_of_Servo_Tres_150:
  3751                           	opt callstack 0
  3752                           
  3753 ;; *************** function _Servo_Tres_0 *****************
  3754 ;; Defined at:
  3755 ;;		line 255 in file "Servo.c"
  3756 ;; Parameters:    Size  Location     Type
  3757 ;;		None
  3758 ;; Auto vars:     Size  Location     Type
  3759 ;;  i               2    1[COMRAM] int 
  3760 ;; Return value:  Size  Location     Type
  3761 ;;                  1    wreg      void 
  3762 ;; Registers used:
  3763 ;;		wreg, status,2, status,0
  3764 ;; Tracked objects:
  3765 ;;		On entry : 0/0
  3766 ;;		On exit  : 0/0
  3767 ;;		Unchanged: 0/0
  3768 ;; Data sizes:     COMRAM   BANK0   BANK1   BANK2   BANK3   BANK4   BANK5   BANK6   BANK7
  3769 ;;      Params:         0       0       0       0       0       0       0       0       0
  3770 ;;      Locals:         2       0       0       0       0       0       0       0       0
  3771 ;;      Temps:          1       0       0       0       0       0       0       0       0
  3772 ;;      Totals:         3       0       0       0       0       0       0       0       0
  3773 ;;Total ram usage:        3 bytes
  3774 ;; Hardware stack levels used:    1
  3775 ;; This function calls:
  3776 ;;		Nothing
  3777 ;; This function is called by:
  3778 ;;		_Servos_150_150
  3779 ;; This function uses a non-reentrant model
  3780 ;;
  3781                           
  3782                           	psect	text37
  3783  00192C                     __ptext37:
  3784                           	opt callstack 0
  3785  00192C                     _Servo_Tres_0:
  3786                           	opt callstack 29
  3787  00192C                     
  3788                           ;Servo.c: 256:              for(int i=0;i<16;i++){
  3789  00192C  0E00               	movlw	0
  3790  00192E  6E03               	movwf	(Servo_Tres_0@i+1)^0,c
  3791  001930  0E00               	movlw	0
  3792  001932  6E02               	movwf	Servo_Tres_0@i^0,c
  3793  001934                     l294:
  3794                           
  3795                           ;Servo.c: 257:             LATBbits.LATB2=0;
  3796  001934  948A               	bcf	138,2,c	;volatile
  3797                           
  3798                           ;Servo.c: 258:             LATBbits.LATB2=1;
  3799  001936  848A               	bsf	138,2,c	;volatile
  3800  001938                     
  3801                           ;Servo.c: 259:             _delay((unsigned long)((0.500)*(8000000/4000.0)));
  3802  001938  0EC8               	movlw	200
  3803  00193A                     u1377:
  3804  00193A  D000               	nop2	
  3805  00193C  2EE8               	decfsz	wreg,f,c
  3806  00193E  D7FD               	bra	u1377
  3807  001940                     
  3808                           ;Servo.c: 260:             LATBbits.LATB2=0;
  3809  001940  948A               	bcf	138,2,c	;volatile
  3810                           
  3811                           ;Servo.c: 261:             _delay((unsigned long)((20-0.500)*(8000000/4000.0)));}
  3812  001942  0E33               	movlw	51
  3813  001944  6E01               	movwf	??_Servo_Tres_0^0,c
  3814  001946  0EA5               	movlw	165
  3815  001948                     u1387:
  3816  001948  2EE8               	decfsz	wreg,f,c
  3817  00194A  D7FE               	bra	u1387
  3818  00194C  2E01               	decfsz	??_Servo_Tres_0^0,f,c
  3819  00194E  D7FC               	bra	u1387
  3820  001950  F000               	nop	
  3821  001952  4A02               	infsnz	Servo_Tres_0@i^0,f,c
  3822  001954  2A03               	incf	(Servo_Tres_0@i+1)^0,f,c
  3823  001956  BE03               	btfsc	(Servo_Tres_0@i+1)^0,7,c
  3824  001958  EFB7  F00C         	goto	u251
  3825  00195C  5003               	movf	(Servo_Tres_0@i+1)^0,w,c
  3826  00195E  E109               	bnz	u250
  3827  001960  0E10               	movlw	16
  3828  001962  5C02               	subwf	Servo_Tres_0@i^0,w,c
  3829  001964  A0D8               	btfss	status,0,c
  3830  001966  EFB7  F00C         	goto	u251
  3831  00196A  EFB9  F00C         	goto	u250
  3832  00196E                     u251:
  3833  00196E  EF9A  F00C         	goto	l294
  3834  001972                     u250:
  3835  001972  0012               	return		;funcret
  3836  001974                     __end_of_Servo_Tres_0:
  3837                           	opt callstack 0
  3838                           
  3839 ;; *************** function _Servo_Cuatro_150 *****************
  3840 ;; Defined at:
  3841 ;;		line 464 in file "Servo.c"
  3842 ;; Parameters:    Size  Location     Type
  3843 ;;		None
  3844 ;; Auto vars:     Size  Location     Type
  3845 ;;  i               2    1[COMRAM] int 
  3846 ;; Return value:  Size  Location     Type
  3847 ;;                  1    wreg      void 
  3848 ;; Registers used:
  3849 ;;		wreg, status,2, status,0
  3850 ;; Tracked objects:
  3851 ;;		On entry : 0/0
  3852 ;;		On exit  : 0/0
  3853 ;;		Unchanged: 0/0
  3854 ;; Data sizes:     COMRAM   BANK0   BANK1   BANK2   BANK3   BANK4   BANK5   BANK6   BANK7
  3855 ;;      Params:         0       0       0       0       0       0       0       0       0
  3856 ;;      Locals:         2       0       0       0       0       0       0       0       0
  3857 ;;      Temps:          1       0       0       0       0       0       0       0       0
  3858 ;;      Totals:         3       0       0       0       0       0       0       0       0
  3859 ;;Total ram usage:        3 bytes
  3860 ;; Hardware stack levels used:    1
  3861 ;; This function calls:
  3862 ;;		Nothing
  3863 ;; This function is called by:
  3864 ;;		_Servos_150_150
  3865 ;; This function uses a non-reentrant model
  3866 ;;
  3867                           
  3868                           	psect	text38
  3869  001170                     __ptext38:
  3870                           	opt callstack 0
  3871  001170                     _Servo_Cuatro_150:
  3872                           	opt callstack 29
  3873  001170                     
  3874                           ;Servo.c: 465:              for(int i=0;i<16;i++){
  3875  001170  0E00               	movlw	0
  3876  001172  6E03               	movwf	(Servo_Cuatro_150@i+1)^0,c
  3877  001174  0E00               	movlw	0
  3878  001176  6E02               	movwf	Servo_Cuatro_150@i^0,c
  3879  001178                     l409:
  3880                           
  3881                           ;Servo.c: 466:             LATBbits.LATB3=0;
  3882  001178  968A               	bcf	138,3,c	;volatile
  3883                           
  3884                           ;Servo.c: 467:             LATBbits.LATB3=1;
  3885  00117A  868A               	bsf	138,3,c	;volatile
  3886  00117C                     
  3887                           ;Servo.c: 468:             _delay((unsigned long)((2.170)*(8000000/4000.0)));
  3888  00117C  0E06               	movlw	6
  3889  00117E  6E01               	movwf	??_Servo_Cuatro_150^0,c
  3890  001180  0EA2               	movlw	162
  3891  001182                     u1397:
  3892  001182  2EE8               	decfsz	wreg,f,c
  3893  001184  D7FE               	bra	u1397
  3894  001186  2E01               	decfsz	??_Servo_Cuatro_150^0,f,c
  3895  001188  D7FC               	bra	u1397
  3896  00118A                     
  3897                           ;Servo.c: 469:             LATBbits.LATB3=0;
  3898  00118A  968A               	bcf	138,3,c	;volatile
  3899                           
  3900                           ;Servo.c: 470:             _delay((unsigned long)((20-2.170)*(8000000/4000.0)));}
  3901  00118C  0E2F               	movlw	47
  3902  00118E  6E01               	movwf	??_Servo_Cuatro_150^0,c
  3903  001190  0E4E               	movlw	78
  3904  001192                     u1407:
  3905  001192  2EE8               	decfsz	wreg,f,c
  3906  001194  D7FE               	bra	u1407
  3907  001196  2E01               	decfsz	??_Servo_Cuatro_150^0,f,c
  3908  001198  D7FC               	bra	u1407
  3909  00119A  D000               	nop2	
  3910  00119C  4A02               	infsnz	Servo_Cuatro_150@i^0,f,c
  3911  00119E  2A03               	incf	(Servo_Cuatro_150@i+1)^0,f,c
  3912  0011A0  BE03               	btfsc	(Servo_Cuatro_150@i+1)^0,7,c
  3913  0011A2  EFDC  F008         	goto	u241
  3914  0011A6  5003               	movf	(Servo_Cuatro_150@i+1)^0,w,c
  3915  0011A8  E109               	bnz	u240
  3916  0011AA  0E10               	movlw	16
  3917  0011AC  5C02               	subwf	Servo_Cuatro_150@i^0,w,c
  3918  0011AE  A0D8               	btfss	status,0,c
  3919  0011B0  EFDC  F008         	goto	u241
  3920  0011B4  EFDE  F008         	goto	u240
  3921  0011B8                     u241:
  3922  0011B8  EFBC  F008         	goto	l409
  3923  0011BC                     u240:
  3924  0011BC  0012               	return		;funcret
  3925  0011BE                     __end_of_Servo_Cuatro_150:
  3926                           	opt callstack 0
  3927                           
  3928 ;; *************** function _Servo_Cuatro_0 *****************
  3929 ;; Defined at:
  3930 ;;		line 374 in file "Servo.c"
  3931 ;; Parameters:    Size  Location     Type
  3932 ;;		None
  3933 ;; Auto vars:     Size  Location     Type
  3934 ;;  i               2    1[COMRAM] int 
  3935 ;; Return value:  Size  Location     Type
  3936 ;;                  1    wreg      void 
  3937 ;; Registers used:
  3938 ;;		wreg, status,2, status,0
  3939 ;; Tracked objects:
  3940 ;;		On entry : 0/0
  3941 ;;		On exit  : 0/0
  3942 ;;		Unchanged: 0/0
  3943 ;; Data sizes:     COMRAM   BANK0   BANK1   BANK2   BANK3   BANK4   BANK5   BANK6   BANK7
  3944 ;;      Params:         0       0       0       0       0       0       0       0       0
  3945 ;;      Locals:         2       0       0       0       0       0       0       0       0
  3946 ;;      Temps:          1       0       0       0       0       0       0       0       0
  3947 ;;      Totals:         3       0       0       0       0       0       0       0       0
  3948 ;;Total ram usage:        3 bytes
  3949 ;; Hardware stack levels used:    1
  3950 ;; This function calls:
  3951 ;;		Nothing
  3952 ;; This function is called by:
  3953 ;;		_Servos_150_150
  3954 ;; This function uses a non-reentrant model
  3955 ;;
  3956                           
  3957                           	psect	text39
  3958  001974                     __ptext39:
  3959                           	opt callstack 0
  3960  001974                     _Servo_Cuatro_0:
  3961                           	opt callstack 29
  3962  001974                     
  3963                           ;Servo.c: 375:              for(int i=0;i<16;i++){
  3964  001974  0E00               	movlw	0
  3965  001976  6E03               	movwf	(Servo_Cuatro_0@i+1)^0,c
  3966  001978  0E00               	movlw	0
  3967  00197A  6E02               	movwf	Servo_Cuatro_0@i^0,c
  3968  00197C                     l359:
  3969                           
  3970                           ;Servo.c: 376:             LATBbits.LATB3=0;
  3971  00197C  968A               	bcf	138,3,c	;volatile
  3972                           
  3973                           ;Servo.c: 377:             LATBbits.LATB3=1;
  3974  00197E  868A               	bsf	138,3,c	;volatile
  3975  001980                     
  3976                           ;Servo.c: 378:             _delay((unsigned long)((0.500)*(8000000/4000.0)));
  3977  001980  0EC8               	movlw	200
  3978  001982                     u1417:
  3979  001982  D000               	nop2	
  3980  001984  2EE8               	decfsz	wreg,f,c
  3981  001986  D7FD               	bra	u1417
  3982  001988                     
  3983                           ;Servo.c: 379:             LATBbits.LATB3=0;
  3984  001988  968A               	bcf	138,3,c	;volatile
  3985                           
  3986                           ;Servo.c: 380:             _delay((unsigned long)((20-0.500)*(8000000/4000.0)));}
  3987  00198A  0E33               	movlw	51
  3988  00198C  6E01               	movwf	??_Servo_Cuatro_0^0,c
  3989  00198E  0EA5               	movlw	165
  3990  001990                     u1427:
  3991  001990  2EE8               	decfsz	wreg,f,c
  3992  001992  D7FE               	bra	u1427
  3993  001994  2E01               	decfsz	??_Servo_Cuatro_0^0,f,c
  3994  001996  D7FC               	bra	u1427
  3995  001998  F000               	nop	
  3996  00199A  4A02               	infsnz	Servo_Cuatro_0@i^0,f,c
  3997  00199C  2A03               	incf	(Servo_Cuatro_0@i+1)^0,f,c
  3998  00199E  BE03               	btfsc	(Servo_Cuatro_0@i+1)^0,7,c
  3999  0019A0  EFDB  F00C         	goto	u261
  4000  0019A4  5003               	movf	(Servo_Cuatro_0@i+1)^0,w,c
  4001  0019A6  E109               	bnz	u260
  4002  0019A8  0E10               	movlw	16
  4003  0019AA  5C02               	subwf	Servo_Cuatro_0@i^0,w,c
  4004  0019AC  A0D8               	btfss	status,0,c
  4005  0019AE  EFDB  F00C         	goto	u261
  4006  0019B2  EFDD  F00C         	goto	u260
  4007  0019B6                     u261:
  4008  0019B6  EFBE  F00C         	goto	l359
  4009  0019BA                     u260:
  4010  0019BA  0012               	return		;funcret
  4011  0019BC                     __end_of_Servo_Cuatro_0:
  4012                           	opt callstack 0
  4013                           
  4014 ;; *************** function _Servos_150_120 *****************
  4015 ;; Defined at:
  4016 ;;		line 65 in file "Confi.c"
  4017 ;; Parameters:    Size  Location     Type
  4018 ;;		None
  4019 ;; Auto vars:     Size  Location     Type
  4020 ;;		None
  4021 ;; Return value:  Size  Location     Type
  4022 ;;                  1    wreg      void 
  4023 ;; Registers used:
  4024 ;;		wreg, status,2, status,0, cstack
  4025 ;; Tracked objects:
  4026 ;;		On entry : 0/0
  4027 ;;		On exit  : 0/0
  4028 ;;		Unchanged: 0/0
  4029 ;; Data sizes:     COMRAM   BANK0   BANK1   BANK2   BANK3   BANK4   BANK5   BANK6   BANK7
  4030 ;;      Params:         0       0       0       0       0       0       0       0       0
  4031 ;;      Locals:         0       0       0       0       0       0       0       0       0
  4032 ;;      Temps:          0       0       0       0       0       0       0       0       0
  4033 ;;      Totals:         0       0       0       0       0       0       0       0       0
  4034 ;;Total ram usage:        0 bytes
  4035 ;; Hardware stack levels used:    1
  4036 ;; Hardware stack levels required when called:    1
  4037 ;; This function calls:
  4038 ;;		_Servo_Cuatro_105
  4039 ;;		_Servo_Cuatro_120
  4040 ;;		_Servo_Cuatro_135
  4041 ;;		_Servo_Cuatro_15
  4042 ;;		_Servo_Cuatro_30
  4043 ;;		_Servo_Cuatro_45
  4044 ;;		_Servo_Cuatro_60
  4045 ;;		_Servo_Cuatro_75
  4046 ;;		_Servo_Cuatro_90
  4047 ;;		_Servo_Tres_105
  4048 ;;		_Servo_Tres_120
  4049 ;;		_Servo_Tres_135
  4050 ;;		_Servo_Tres_15
  4051 ;;		_Servo_Tres_30
  4052 ;;		_Servo_Tres_45
  4053 ;;		_Servo_Tres_60
  4054 ;;		_Servo_Tres_75
  4055 ;;		_Servo_Tres_90
  4056 ;; This function is called by:
  4057 ;;		_main
  4058 ;; This function uses a non-reentrant model
  4059 ;;
  4060                           
  4061                           	psect	text40
  4062  000A10                     __ptext40:
  4063                           	opt callstack 0
  4064  000A10                     _Servos_150_120:
  4065                           	opt callstack 29
  4066  000A10                     
  4067                           ;Confi.c: 66:         Servo_Tres_75(); Servo_Cuatro_75();
  4068  000A10  ECBB  F006         	call	_Servo_Tres_75	;wreg free
  4069  000A14  ECE3  F006         	call	_Servo_Cuatro_75	;wreg free
  4070                           
  4071                           ;Confi.c: 67:         Servo_Tres_90(); Servo_Cuatro_90();
  4072  000A18  ECDF  F008         	call	_Servo_Tres_90	;wreg free
  4073  000A1C  ECA2  F009         	call	_Servo_Cuatro_90	;wreg free
  4074                           
  4075                           ;Confi.c: 68:         Servo_Tres_105(); Servo_Cuatro_105();
  4076  000A20  EC6B  F006         	call	_Servo_Tres_105	;wreg free
  4077  000A24  EC93  F006         	call	_Servo_Cuatro_105	;wreg free
  4078                           
  4079                           ;Confi.c: 69:         Servo_Tres_120(); Servo_Cuatro_120();
  4080  000A28  EC7B  F009         	call	_Servo_Tres_120	;wreg free
  4081  000A2C  EC3E  F00A         	call	_Servo_Cuatro_120	;wreg free
  4082                           
  4083                           ;Confi.c: 70:         Servo_Tres_135(); Servo_Cuatro_135();
  4084  000A30  EC54  F009         	call	_Servo_Tres_135	;wreg free
  4085  000A34  EC17  F00A         	call	_Servo_Cuatro_135	;wreg free
  4086                           
  4087                           ;Confi.c: 71:         Servo_Tres_120(); Servo_Cuatro_120();
  4088  000A38  EC7B  F009         	call	_Servo_Tres_120	;wreg free
  4089  000A3C  EC3E  F00A         	call	_Servo_Cuatro_120	;wreg free
  4090                           
  4091                           ;Confi.c: 72:         Servo_Tres_105(); Servo_Cuatro_105();
  4092  000A40  EC6B  F006         	call	_Servo_Tres_105	;wreg free
  4093  000A44  EC93  F006         	call	_Servo_Cuatro_105	;wreg free
  4094                           
  4095                           ;Confi.c: 73:         Servo_Tres_90(); Servo_Cuatro_90();
  4096  000A48  ECDF  F008         	call	_Servo_Tres_90	;wreg free
  4097  000A4C  ECA2  F009         	call	_Servo_Cuatro_90	;wreg free
  4098                           
  4099                           ;Confi.c: 74:         Servo_Tres_75(); Servo_Cuatro_75();
  4100  000A50  ECBB  F006         	call	_Servo_Tres_75	;wreg free
  4101  000A54  ECE3  F006         	call	_Servo_Cuatro_75	;wreg free
  4102                           
  4103                           ;Confi.c: 75:         Servo_Tres_60(); Servo_Cuatro_60();
  4104  000A58  EC06  F009         	call	_Servo_Tres_60	;wreg free
  4105  000A5C  ECC9  F009         	call	_Servo_Cuatro_60	;wreg free
  4106                           
  4107                           ;Confi.c: 76:         Servo_Tres_45(); Servo_Cuatro_45();
  4108  000A60  EC2D  F009         	call	_Servo_Tres_45	;wreg free
  4109  000A64  ECF0  F009         	call	_Servo_Cuatro_45	;wreg free
  4110                           
  4111                           ;Confi.c: 77:         Servo_Tres_30(); Servo_Cuatro_30();
  4112  000A68  EC4C  F00C         	call	_Servo_Tres_30	;wreg free
  4113  000A6C  EC71  F00C         	call	_Servo_Cuatro_30	;wreg free
  4114                           
  4115                           ;Confi.c: 78:         Servo_Tres_15(); Servo_Cuatro_15();
  4116  000A70  ECFD  F00A         	call	_Servo_Tres_15	;wreg free
  4117  000A74  EC23  F00B         	call	_Servo_Cuatro_15	;wreg free
  4118                           
  4119                           ;Confi.c: 79:         Servo_Tres_30(); Servo_Cuatro_30();
  4120  000A78  EC4C  F00C         	call	_Servo_Tres_30	;wreg free
  4121  000A7C  EC71  F00C         	call	_Servo_Cuatro_30	;wreg free
  4122                           
  4123                           ;Confi.c: 80:         Servo_Tres_45(); Servo_Cuatro_45();
  4124  000A80  EC2D  F009         	call	_Servo_Tres_45	;wreg free
  4125  000A84  ECF0  F009         	call	_Servo_Cuatro_45	;wreg free
  4126                           
  4127                           ;Confi.c: 81:         Servo_Tres_60(); Servo_Cuatro_60();
  4128  000A88  EC06  F009         	call	_Servo_Tres_60	;wreg free
  4129  000A8C  ECC9  F009         	call	_Servo_Cuatro_60	;wreg free
  4130                           
  4131                           ;Confi.c: 82:         Servo_Tres_75(); Servo_Cuatro_75();
  4132  000A90  ECBB  F006         	call	_Servo_Tres_75	;wreg free
  4133  000A94  ECE3  F006         	call	_Servo_Cuatro_75	;wreg free
  4134  000A98  0012               	return		;funcret
  4135  000A9A                     __end_of_Servos_150_120:
  4136                           	opt callstack 0
  4137                           
  4138 ;; *************** function _Servo_Tres_90 *****************
  4139 ;; Defined at:
  4140 ;;		line 309 in file "Servo.c"
  4141 ;; Parameters:    Size  Location     Type
  4142 ;;		None
  4143 ;; Auto vars:     Size  Location     Type
  4144 ;;  i               2    1[COMRAM] int 
  4145 ;; Return value:  Size  Location     Type
  4146 ;;                  1    wreg      void 
  4147 ;; Registers used:
  4148 ;;		wreg, status,2, status,0
  4149 ;; Tracked objects:
  4150 ;;		On entry : 0/0
  4151 ;;		On exit  : 0/0
  4152 ;;		Unchanged: 0/0
  4153 ;; Data sizes:     COMRAM   BANK0   BANK1   BANK2   BANK3   BANK4   BANK5   BANK6   BANK7
  4154 ;;      Params:         0       0       0       0       0       0       0       0       0
  4155 ;;      Locals:         2       0       0       0       0       0       0       0       0
  4156 ;;      Temps:          1       0       0       0       0       0       0       0       0
  4157 ;;      Totals:         3       0       0       0       0       0       0       0       0
  4158 ;;Total ram usage:        3 bytes
  4159 ;; Hardware stack levels used:    1
  4160 ;; This function calls:
  4161 ;;		Nothing
  4162 ;; This function is called by:
  4163 ;;		_Servos_150_30
  4164 ;;		_Servos_150_60
  4165 ;;		_Servos_150_90
  4166 ;;		_Servos_150_120
  4167 ;;		_Servos_150_150
  4168 ;; This function uses a non-reentrant model
  4169 ;;
  4170                           
  4171                           	psect	text41
  4172  0011BE                     __ptext41:
  4173                           	opt callstack 0
  4174  0011BE                     _Servo_Tres_90:
  4175                           	opt callstack 29
  4176  0011BE                     
  4177                           ;Servo.c: 310:              for(int i=0;i<16;i++){
  4178  0011BE  0E00               	movlw	0
  4179  0011C0  6E03               	movwf	(Servo_Tres_90@i+1)^0,c
  4180  0011C2  0E00               	movlw	0
  4181  0011C4  6E02               	movwf	Servo_Tres_90@i^0,c
  4182  0011C6                     l324:
  4183                           
  4184                           ;Servo.c: 311:             LATBbits.LATB2=0;
  4185  0011C6  948A               	bcf	138,2,c	;volatile
  4186                           
  4187                           ;Servo.c: 312:             LATBbits.LATB2=1;
  4188  0011C8  848A               	bsf	138,2,c	;volatile
  4189  0011CA                     
  4190                           ;Servo.c: 313:             _delay((unsigned long)((1.500)*(8000000/4000.0)));
  4191  0011CA  0E04               	movlw	4
  4192  0011CC  6E01               	movwf	??_Servo_Tres_90^0,c
  4193  0011CE  0EE4               	movlw	228
  4194  0011D0                     u1437:
  4195  0011D0  2EE8               	decfsz	wreg,f,c
  4196  0011D2  D7FE               	bra	u1437
  4197  0011D4  2E01               	decfsz	??_Servo_Tres_90^0,f,c
  4198  0011D6  D7FC               	bra	u1437
  4199  0011D8  D000               	nop2	
  4200  0011DA                     
  4201                           ;Servo.c: 314:             LATBbits.LATB2=0;
  4202  0011DA  948A               	bcf	138,2,c	;volatile
  4203                           
  4204                           ;Servo.c: 315:             _delay((unsigned long)((20-1.500)*(8000000/4000.0)));}
  4205  0011DC  0E31               	movlw	49
  4206  0011DE  6E01               	movwf	??_Servo_Tres_90^0,c
  4207  0011E0  0E0C               	movlw	12
  4208  0011E2                     u1447:
  4209  0011E2  2EE8               	decfsz	wreg,f,c
  4210  0011E4  D7FE               	bra	u1447
  4211  0011E6  2E01               	decfsz	??_Servo_Tres_90^0,f,c
  4212  0011E8  D7FC               	bra	u1447
  4213  0011EA  4A02               	infsnz	Servo_Tres_90@i^0,f,c
  4214  0011EC  2A03               	incf	(Servo_Tres_90@i+1)^0,f,c
  4215  0011EE  BE03               	btfsc	(Servo_Tres_90@i+1)^0,7,c
  4216  0011F0  EF03  F009         	goto	u71
  4217  0011F4  5003               	movf	(Servo_Tres_90@i+1)^0,w,c
  4218  0011F6  E109               	bnz	u70
  4219  0011F8  0E10               	movlw	16
  4220  0011FA  5C02               	subwf	Servo_Tres_90@i^0,w,c
  4221  0011FC  A0D8               	btfss	status,0,c
  4222  0011FE  EF03  F009         	goto	u71
  4223  001202  EF05  F009         	goto	u70
  4224  001206                     u71:
  4225  001206  EFE3  F008         	goto	l324
  4226  00120A                     u70:
  4227  00120A  0012               	return		;funcret
  4228  00120C                     __end_of_Servo_Tres_90:
  4229                           	opt callstack 0
  4230                           
  4231 ;; *************** function _Servo_Tres_60 *****************
  4232 ;; Defined at:
  4233 ;;		line 291 in file "Servo.c"
  4234 ;; Parameters:    Size  Location     Type
  4235 ;;		None
  4236 ;; Auto vars:     Size  Location     Type
  4237 ;;  i               2    1[COMRAM] int 
  4238 ;; Return value:  Size  Location     Type
  4239 ;;                  1    wreg      void 
  4240 ;; Registers used:
  4241 ;;		wreg, status,2, status,0
  4242 ;; Tracked objects:
  4243 ;;		On entry : 0/0
  4244 ;;		On exit  : 0/0
  4245 ;;		Unchanged: 0/0
  4246 ;; Data sizes:     COMRAM   BANK0   BANK1   BANK2   BANK3   BANK4   BANK5   BANK6   BANK7
  4247 ;;      Params:         0       0       0       0       0       0       0       0       0
  4248 ;;      Locals:         2       0       0       0       0       0       0       0       0
  4249 ;;      Temps:          1       0       0       0       0       0       0       0       0
  4250 ;;      Totals:         3       0       0       0       0       0       0       0       0
  4251 ;;Total ram usage:        3 bytes
  4252 ;; Hardware stack levels used:    1
  4253 ;; This function calls:
  4254 ;;		Nothing
  4255 ;; This function is called by:
  4256 ;;		_Servos_150_30
  4257 ;;		_Servos_150_60
  4258 ;;		_Servos_150_90
  4259 ;;		_Servos_150_120
  4260 ;;		_Servos_150_150
  4261 ;; This function uses a non-reentrant model
  4262 ;;
  4263                           
  4264                           	psect	text42
  4265  00120C                     __ptext42:
  4266                           	opt callstack 0
  4267  00120C                     _Servo_Tres_60:
  4268                           	opt callstack 29
  4269  00120C                     
  4270                           ;Servo.c: 292:              for(int i=0;i<16;i++){
  4271  00120C  0E00               	movlw	0
  4272  00120E  6E03               	movwf	(Servo_Tres_60@i+1)^0,c
  4273  001210  0E00               	movlw	0
  4274  001212  6E02               	movwf	Servo_Tres_60@i^0,c
  4275  001214                     l314:
  4276                           
  4277                           ;Servo.c: 293:             LATBbits.LATB2=0;
  4278  001214  948A               	bcf	138,2,c	;volatile
  4279                           
  4280                           ;Servo.c: 294:             LATBbits.LATB2=1;
  4281  001216  848A               	bsf	138,2,c	;volatile
  4282  001218                     
  4283                           ;Servo.c: 295:             _delay((unsigned long)((1.170)*(8000000/4000.0)));
  4284  001218  0E04               	movlw	4
  4285  00121A  6E01               	movwf	??_Servo_Tres_60^0,c
  4286  00121C  0E08               	movlw	8
  4287  00121E                     u1457:
  4288  00121E  2EE8               	decfsz	wreg,f,c
  4289  001220  D7FE               	bra	u1457
  4290  001222  2E01               	decfsz	??_Servo_Tres_60^0,f,c
  4291  001224  D7FC               	bra	u1457
  4292  001226  D000               	nop2	
  4293  001228                     
  4294                           ;Servo.c: 296:             LATBbits.LATB2=0;
  4295  001228  948A               	bcf	138,2,c	;volatile
  4296                           
  4297                           ;Servo.c: 297:             _delay((unsigned long)((20-1.170)*(8000000/4000.0)));}
  4298  00122A  0E31               	movlw	49
  4299  00122C  6E01               	movwf	??_Servo_Tres_60^0,c
  4300  00122E  0EE8               	movlw	232
  4301  001230                     u1467:
  4302  001230  2EE8               	decfsz	wreg,f,c
  4303  001232  D7FE               	bra	u1467
  4304  001234  2E01               	decfsz	??_Servo_Tres_60^0,f,c
  4305  001236  D7FC               	bra	u1467
  4306  001238  4A02               	infsnz	Servo_Tres_60@i^0,f,c
  4307  00123A  2A03               	incf	(Servo_Tres_60@i+1)^0,f,c
  4308  00123C  BE03               	btfsc	(Servo_Tres_60@i+1)^0,7,c
  4309  00123E  EF2A  F009         	goto	u111
  4310  001242  5003               	movf	(Servo_Tres_60@i+1)^0,w,c
  4311  001244  E109               	bnz	u110
  4312  001246  0E10               	movlw	16
  4313  001248  5C02               	subwf	Servo_Tres_60@i^0,w,c
  4314  00124A  A0D8               	btfss	status,0,c
  4315  00124C  EF2A  F009         	goto	u111
  4316  001250  EF2C  F009         	goto	u110
  4317  001254                     u111:
  4318  001254  EF0A  F009         	goto	l314
  4319  001258                     u110:
  4320  001258  0012               	return		;funcret
  4321  00125A                     __end_of_Servo_Tres_60:
  4322                           	opt callstack 0
  4323                           
  4324 ;; *************** function _Servo_Tres_45 *****************
  4325 ;; Defined at:
  4326 ;;		line 282 in file "Servo.c"
  4327 ;; Parameters:    Size  Location     Type
  4328 ;;		None
  4329 ;; Auto vars:     Size  Location     Type
  4330 ;;  i               2    1[COMRAM] int 
  4331 ;; Return value:  Size  Location     Type
  4332 ;;                  1    wreg      void 
  4333 ;; Registers used:
  4334 ;;		wreg, status,2, status,0
  4335 ;; Tracked objects:
  4336 ;;		On entry : 0/0
  4337 ;;		On exit  : 0/0
  4338 ;;		Unchanged: 0/0
  4339 ;; Data sizes:     COMRAM   BANK0   BANK1   BANK2   BANK3   BANK4   BANK5   BANK6   BANK7
  4340 ;;      Params:         0       0       0       0       0       0       0       0       0
  4341 ;;      Locals:         2       0       0       0       0       0       0       0       0
  4342 ;;      Temps:          1       0       0       0       0       0       0       0       0
  4343 ;;      Totals:         3       0       0       0       0       0       0       0       0
  4344 ;;Total ram usage:        3 bytes
  4345 ;; Hardware stack levels used:    1
  4346 ;; This function calls:
  4347 ;;		Nothing
  4348 ;; This function is called by:
  4349 ;;		_Servos_150_30
  4350 ;;		_Servos_150_60
  4351 ;;		_Servos_150_90
  4352 ;;		_Servos_150_120
  4353 ;;		_Servos_150_150
  4354 ;; This function uses a non-reentrant model
  4355 ;;
  4356                           
  4357                           	psect	text43
  4358  00125A                     __ptext43:
  4359                           	opt callstack 0
  4360  00125A                     _Servo_Tres_45:
  4361                           	opt callstack 29
  4362  00125A                     
  4363                           ;Servo.c: 283:              for(int i=0;i<16;i++){
  4364  00125A  0E00               	movlw	0
  4365  00125C  6E03               	movwf	(Servo_Tres_45@i+1)^0,c
  4366  00125E  0E00               	movlw	0
  4367  001260  6E02               	movwf	Servo_Tres_45@i^0,c
  4368  001262                     l309:
  4369                           
  4370                           ;Servo.c: 284:             LATBbits.LATB2=0;
  4371  001262  948A               	bcf	138,2,c	;volatile
  4372                           
  4373                           ;Servo.c: 285:             LATBbits.LATB2=1;
  4374  001264  848A               	bsf	138,2,c	;volatile
  4375  001266                     
  4376                           ;Servo.c: 286:             _delay((unsigned long)((1.000)*(8000000/4000.0)));
  4377  001266  0E03               	movlw	3
  4378  001268  6E01               	movwf	??_Servo_Tres_45^0,c
  4379  00126A  0E98               	movlw	152
  4380  00126C                     u1477:
  4381  00126C  2EE8               	decfsz	wreg,f,c
  4382  00126E  D7FE               	bra	u1477
  4383  001270  2E01               	decfsz	??_Servo_Tres_45^0,f,c
  4384  001272  D7FC               	bra	u1477
  4385  001274                     
  4386                           ;Servo.c: 287:             LATBbits.LATB2=0;
  4387  001274  948A               	bcf	138,2,c	;volatile
  4388                           
  4389                           ;Servo.c: 288:             _delay((unsigned long)((20-1.000)*(8000000/4000.0)));}
  4390  001276  0E32               	movlw	50
  4391  001278  6E01               	movwf	??_Servo_Tres_45^0,c
  4392  00127A  0E58               	movlw	88
  4393  00127C                     u1487:
  4394  00127C  2EE8               	decfsz	wreg,f,c
  4395  00127E  D7FE               	bra	u1487
  4396  001280  2E01               	decfsz	??_Servo_Tres_45^0,f,c
  4397  001282  D7FC               	bra	u1487
  4398  001284  D000               	nop2	
  4399  001286  4A02               	infsnz	Servo_Tres_45@i^0,f,c
  4400  001288  2A03               	incf	(Servo_Tres_45@i+1)^0,f,c
  4401  00128A  BE03               	btfsc	(Servo_Tres_45@i+1)^0,7,c
  4402  00128C  EF51  F009         	goto	u131
  4403  001290  5003               	movf	(Servo_Tres_45@i+1)^0,w,c
  4404  001292  E109               	bnz	u130
  4405  001294  0E10               	movlw	16
  4406  001296  5C02               	subwf	Servo_Tres_45@i^0,w,c
  4407  001298  A0D8               	btfss	status,0,c
  4408  00129A  EF51  F009         	goto	u131
  4409  00129E  EF53  F009         	goto	u130
  4410  0012A2                     u131:
  4411  0012A2  EF31  F009         	goto	l309
  4412  0012A6                     u130:
  4413  0012A6  0012               	return		;funcret
  4414  0012A8                     __end_of_Servo_Tres_45:
  4415                           	opt callstack 0
  4416                           
  4417 ;; *************** function _Servo_Tres_30 *****************
  4418 ;; Defined at:
  4419 ;;		line 273 in file "Servo.c"
  4420 ;; Parameters:    Size  Location     Type
  4421 ;;		None
  4422 ;; Auto vars:     Size  Location     Type
  4423 ;;  i               2    1[COMRAM] int 
  4424 ;; Return value:  Size  Location     Type
  4425 ;;                  1    wreg      void 
  4426 ;; Registers used:
  4427 ;;		wreg, status,2, status,0
  4428 ;; Tracked objects:
  4429 ;;		On entry : 0/0
  4430 ;;		On exit  : 0/0
  4431 ;;		Unchanged: 0/0
  4432 ;; Data sizes:     COMRAM   BANK0   BANK1   BANK2   BANK3   BANK4   BANK5   BANK6   BANK7
  4433 ;;      Params:         0       0       0       0       0       0       0       0       0
  4434 ;;      Locals:         2       0       0       0       0       0       0       0       0
  4435 ;;      Temps:          1       0       0       0       0       0       0       0       0
  4436 ;;      Totals:         3       0       0       0       0       0       0       0       0
  4437 ;;Total ram usage:        3 bytes
  4438 ;; Hardware stack levels used:    1
  4439 ;; This function calls:
  4440 ;;		Nothing
  4441 ;; This function is called by:
  4442 ;;		_Servos_150_60
  4443 ;;		_Servos_150_90
  4444 ;;		_Servos_150_120
  4445 ;;		_Servos_150_150
  4446 ;; This function uses a non-reentrant model
  4447 ;;
  4448                           
  4449                           	psect	text44
  4450  001898                     __ptext44:
  4451                           	opt callstack 0
  4452  001898                     _Servo_Tres_30:
  4453                           	opt callstack 29
  4454  001898                     
  4455                           ;Servo.c: 274:              for(int i=0;i<16;i++){
  4456  001898  0E00               	movlw	0
  4457  00189A  6E03               	movwf	(Servo_Tres_30@i+1)^0,c
  4458  00189C  0E00               	movlw	0
  4459  00189E  6E02               	movwf	Servo_Tres_30@i^0,c
  4460  0018A0                     l304:
  4461                           
  4462                           ;Servo.c: 275:             LATBbits.LATB2=0;
  4463  0018A0  948A               	bcf	138,2,c	;volatile
  4464                           
  4465                           ;Servo.c: 276:             LATBbits.LATB2=1;
  4466  0018A2  848A               	bsf	138,2,c	;volatile
  4467  0018A4                     
  4468                           ;Servo.c: 277:             _delay((unsigned long)((0.830)*(8000000/4000.0)));
  4469  0018A4  0EED               	movlw	237
  4470  0018A6                     u1497:
  4471  0018A6  D000               	nop2	
  4472  0018A8  D000               	nop2	
  4473  0018AA  2EE8               	decfsz	wreg,f,c
  4474  0018AC  D7FC               	bra	u1497
  4475  0018AE  F000               	nop	
  4476  0018B0                     
  4477                           ;Servo.c: 278:             LATBbits.LATB2=0;
  4478  0018B0  948A               	bcf	138,2,c	;volatile
  4479                           
  4480                           ;Servo.c: 279:             _delay((unsigned long)((20-0.830)*(8000000/4000.0)));}
  4481  0018B2  0E32               	movlw	50
  4482  0018B4  6E01               	movwf	??_Servo_Tres_30^0,c
  4483  0018B6  0ECA               	movlw	202
  4484  0018B8                     u1507:
  4485  0018B8  2EE8               	decfsz	wreg,f,c
  4486  0018BA  D7FE               	bra	u1507
  4487  0018BC  2E01               	decfsz	??_Servo_Tres_30^0,f,c
  4488  0018BE  D7FC               	bra	u1507
  4489  0018C0  4A02               	infsnz	Servo_Tres_30@i^0,f,c
  4490  0018C2  2A03               	incf	(Servo_Tres_30@i+1)^0,f,c
  4491  0018C4  BE03               	btfsc	(Servo_Tres_30@i+1)^0,7,c
  4492  0018C6  EF6E  F00C         	goto	u171
  4493  0018CA  5003               	movf	(Servo_Tres_30@i+1)^0,w,c
  4494  0018CC  E109               	bnz	u170
  4495  0018CE  0E10               	movlw	16
  4496  0018D0  5C02               	subwf	Servo_Tres_30@i^0,w,c
  4497  0018D2  A0D8               	btfss	status,0,c
  4498  0018D4  EF6E  F00C         	goto	u171
  4499  0018D8  EF70  F00C         	goto	u170
  4500  0018DC                     u171:
  4501  0018DC  EF50  F00C         	goto	l304
  4502  0018E0                     u170:
  4503  0018E0  0012               	return		;funcret
  4504  0018E2                     __end_of_Servo_Tres_30:
  4505                           	opt callstack 0
  4506                           
  4507 ;; *************** function _Servo_Tres_15 *****************
  4508 ;; Defined at:
  4509 ;;		line 264 in file "Servo.c"
  4510 ;; Parameters:    Size  Location     Type
  4511 ;;		None
  4512 ;; Auto vars:     Size  Location     Type
  4513 ;;  i               2    1[COMRAM] int 
  4514 ;; Return value:  Size  Location     Type
  4515 ;;                  1    wreg      void 
  4516 ;; Registers used:
  4517 ;;		wreg, status,2, status,0
  4518 ;; Tracked objects:
  4519 ;;		On entry : 0/0
  4520 ;;		On exit  : 0/0
  4521 ;;		Unchanged: 0/0
  4522 ;; Data sizes:     COMRAM   BANK0   BANK1   BANK2   BANK3   BANK4   BANK5   BANK6   BANK7
  4523 ;;      Params:         0       0       0       0       0       0       0       0       0
  4524 ;;      Locals:         2       0       0       0       0       0       0       0       0
  4525 ;;      Temps:          1       0       0       0       0       0       0       0       0
  4526 ;;      Totals:         3       0       0       0       0       0       0       0       0
  4527 ;;Total ram usage:        3 bytes
  4528 ;; Hardware stack levels used:    1
  4529 ;; This function calls:
  4530 ;;		Nothing
  4531 ;; This function is called by:
  4532 ;;		_Servos_150_120
  4533 ;;		_Servos_150_150
  4534 ;; This function uses a non-reentrant model
  4535 ;;
  4536                           
  4537                           	psect	text45
  4538  0015FA                     __ptext45:
  4539                           	opt callstack 0
  4540  0015FA                     _Servo_Tres_15:
  4541                           	opt callstack 29
  4542  0015FA                     
  4543                           ;Servo.c: 265:              for(int i=0;i<16;i++){
  4544  0015FA  0E00               	movlw	0
  4545  0015FC  6E03               	movwf	(Servo_Tres_15@i+1)^0,c
  4546  0015FE  0E00               	movlw	0
  4547  001600  6E02               	movwf	Servo_Tres_15@i^0,c
  4548  001602                     l299:
  4549                           
  4550                           ;Servo.c: 266:             LATBbits.LATB2=0;
  4551  001602  948A               	bcf	138,2,c	;volatile
  4552                           
  4553                           ;Servo.c: 267:             LATBbits.LATB2=1;
  4554  001604  848A               	bsf	138,2,c	;volatile
  4555  001606                     
  4556                           ;Servo.c: 268:             _delay((unsigned long)((0.670)*(8000000/4000.0)));
  4557  001606  0EBF               	movlw	191
  4558  001608                     u1517:
  4559  001608  D000               	nop2	
  4560  00160A  D000               	nop2	
  4561  00160C  2EE8               	decfsz	wreg,f,c
  4562  00160E  D7FC               	bra	u1517
  4563  001610  D000               	nop2	
  4564  001612  F000               	nop	
  4565  001614                     
  4566                           ;Servo.c: 269:             LATBbits.LATB2=0;
  4567  001614  948A               	bcf	138,2,c	;volatile
  4568                           
  4569                           ;Servo.c: 270:             _delay((unsigned long)((20-0.670)*(8000000/4000.0)));}
  4570  001616  0E33               	movlw	51
  4571  001618  6E01               	movwf	??_Servo_Tres_15^0,c
  4572  00161A  0E34               	movlw	52
  4573  00161C                     u1527:
  4574  00161C  2EE8               	decfsz	wreg,f,c
  4575  00161E  D7FE               	bra	u1527
  4576  001620  2E01               	decfsz	??_Servo_Tres_15^0,f,c
  4577  001622  D7FC               	bra	u1527
  4578  001624  4A02               	infsnz	Servo_Tres_15@i^0,f,c
  4579  001626  2A03               	incf	(Servo_Tres_15@i+1)^0,f,c
  4580  001628  BE03               	btfsc	(Servo_Tres_15@i+1)^0,7,c
  4581  00162A  EF20  F00B         	goto	u211
  4582  00162E  5003               	movf	(Servo_Tres_15@i+1)^0,w,c
  4583  001630  E109               	bnz	u210
  4584  001632  0E10               	movlw	16
  4585  001634  5C02               	subwf	Servo_Tres_15@i^0,w,c
  4586  001636  A0D8               	btfss	status,0,c
  4587  001638  EF20  F00B         	goto	u211
  4588  00163C  EF22  F00B         	goto	u210
  4589  001640                     u211:
  4590  001640  EF01  F00B         	goto	l299
  4591  001644                     u210:
  4592  001644  0012               	return		;funcret
  4593  001646                     __end_of_Servo_Tres_15:
  4594                           	opt callstack 0
  4595                           
  4596 ;; *************** function _Servo_Tres_135 *****************
  4597 ;; Defined at:
  4598 ;;		line 336 in file "Servo.c"
  4599 ;; Parameters:    Size  Location     Type
  4600 ;;		None
  4601 ;; Auto vars:     Size  Location     Type
  4602 ;;  i               2    1[COMRAM] int 
  4603 ;; Return value:  Size  Location     Type
  4604 ;;                  1    wreg      void 
  4605 ;; Registers used:
  4606 ;;		wreg, status,2, status,0
  4607 ;; Tracked objects:
  4608 ;;		On entry : 0/0
  4609 ;;		On exit  : 0/0
  4610 ;;		Unchanged: 0/0
  4611 ;; Data sizes:     COMRAM   BANK0   BANK1   BANK2   BANK3   BANK4   BANK5   BANK6   BANK7
  4612 ;;      Params:         0       0       0       0       0       0       0       0       0
  4613 ;;      Locals:         2       0       0       0       0       0       0       0       0
  4614 ;;      Temps:          1       0       0       0       0       0       0       0       0
  4615 ;;      Totals:         3       0       0       0       0       0       0       0       0
  4616 ;;Total ram usage:        3 bytes
  4617 ;; Hardware stack levels used:    1
  4618 ;; This function calls:
  4619 ;;		Nothing
  4620 ;; This function is called by:
  4621 ;;		_Servos_150_120
  4622 ;;		_Servos_150_150
  4623 ;; This function uses a non-reentrant model
  4624 ;;
  4625                           
  4626                           	psect	text46
  4627  0012A8                     __ptext46:
  4628                           	opt callstack 0
  4629  0012A8                     _Servo_Tres_135:
  4630                           	opt callstack 29
  4631  0012A8                     
  4632                           ;Servo.c: 337:              for(int i=0;i<16;i++){
  4633  0012A8  0E00               	movlw	0
  4634  0012AA  6E03               	movwf	(Servo_Tres_135@i+1)^0,c
  4635  0012AC  0E00               	movlw	0
  4636  0012AE  6E02               	movwf	Servo_Tres_135@i^0,c
  4637  0012B0                     l339:
  4638                           
  4639                           ;Servo.c: 338:             LATBbits.LATB2=0;
  4640  0012B0  948A               	bcf	138,2,c	;volatile
  4641                           
  4642                           ;Servo.c: 339:             LATBbits.LATB2=1;
  4643  0012B2  848A               	bsf	138,2,c	;volatile
  4644  0012B4                     
  4645                           ;Servo.c: 340:             _delay((unsigned long)((2.000)*(8000000/4000.0)));
  4646  0012B4  0E06               	movlw	6
  4647  0012B6  6E01               	movwf	??_Servo_Tres_135^0,c
  4648  0012B8  0E30               	movlw	48
  4649  0012BA                     u1537:
  4650  0012BA  2EE8               	decfsz	wreg,f,c
  4651  0012BC  D7FE               	bra	u1537
  4652  0012BE  2E01               	decfsz	??_Servo_Tres_135^0,f,c
  4653  0012C0  D7FC               	bra	u1537
  4654  0012C2  D000               	nop2	
  4655  0012C4                     
  4656                           ;Servo.c: 341:             LATBbits.LATB2=0;
  4657  0012C4  948A               	bcf	138,2,c	;volatile
  4658                           
  4659                           ;Servo.c: 342:             _delay((unsigned long)((20-2.000)*(8000000/4000.0)));}
  4660  0012C6  0E2F               	movlw	47
  4661  0012C8  6E01               	movwf	??_Servo_Tres_135^0,c
  4662  0012CA  0EC0               	movlw	192
  4663  0012CC                     u1547:
  4664  0012CC  2EE8               	decfsz	wreg,f,c
  4665  0012CE  D7FE               	bra	u1547
  4666  0012D0  2E01               	decfsz	??_Servo_Tres_135^0,f,c
  4667  0012D2  D7FC               	bra	u1547
  4668  0012D4  4A02               	infsnz	Servo_Tres_135@i^0,f,c
  4669  0012D6  2A03               	incf	(Servo_Tres_135@i+1)^0,f,c
  4670  0012D8  BE03               	btfsc	(Servo_Tres_135@i+1)^0,7,c
  4671  0012DA  EF78  F009         	goto	u191
  4672  0012DE  5003               	movf	(Servo_Tres_135@i+1)^0,w,c
  4673  0012E0  E109               	bnz	u190
  4674  0012E2  0E10               	movlw	16
  4675  0012E4  5C02               	subwf	Servo_Tres_135@i^0,w,c
  4676  0012E6  A0D8               	btfss	status,0,c
  4677  0012E8  EF78  F009         	goto	u191
  4678  0012EC  EF7A  F009         	goto	u190
  4679  0012F0                     u191:
  4680  0012F0  EF58  F009         	goto	l339
  4681  0012F4                     u190:
  4682  0012F4  0012               	return		;funcret
  4683  0012F6                     __end_of_Servo_Tres_135:
  4684                           	opt callstack 0
  4685                           
  4686 ;; *************** function _Servo_Tres_120 *****************
  4687 ;; Defined at:
  4688 ;;		line 327 in file "Servo.c"
  4689 ;; Parameters:    Size  Location     Type
  4690 ;;		None
  4691 ;; Auto vars:     Size  Location     Type
  4692 ;;  i               2    1[COMRAM] int 
  4693 ;; Return value:  Size  Location     Type
  4694 ;;                  1    wreg      void 
  4695 ;; Registers used:
  4696 ;;		wreg, status,2, status,0
  4697 ;; Tracked objects:
  4698 ;;		On entry : 0/0
  4699 ;;		On exit  : 0/0
  4700 ;;		Unchanged: 0/0
  4701 ;; Data sizes:     COMRAM   BANK0   BANK1   BANK2   BANK3   BANK4   BANK5   BANK6   BANK7
  4702 ;;      Params:         0       0       0       0       0       0       0       0       0
  4703 ;;      Locals:         2       0       0       0       0       0       0       0       0
  4704 ;;      Temps:          1       0       0       0       0       0       0       0       0
  4705 ;;      Totals:         3       0       0       0       0       0       0       0       0
  4706 ;;Total ram usage:        3 bytes
  4707 ;; Hardware stack levels used:    1
  4708 ;; This function calls:
  4709 ;;		Nothing
  4710 ;; This function is called by:
  4711 ;;		_Servos_150_60
  4712 ;;		_Servos_150_90
  4713 ;;		_Servos_150_120
  4714 ;;		_Servos_150_150
  4715 ;; This function uses a non-reentrant model
  4716 ;;
  4717                           
  4718                           	psect	text47
  4719  0012F6                     __ptext47:
  4720                           	opt callstack 0
  4721  0012F6                     _Servo_Tres_120:
  4722                           	opt callstack 29
  4723  0012F6                     
  4724                           ;Servo.c: 328:              for(int i=0;i<16;i++){
  4725  0012F6  0E00               	movlw	0
  4726  0012F8  6E03               	movwf	(Servo_Tres_120@i+1)^0,c
  4727  0012FA  0E00               	movlw	0
  4728  0012FC  6E02               	movwf	Servo_Tres_120@i^0,c
  4729  0012FE                     l334:
  4730                           
  4731                           ;Servo.c: 329:             LATBbits.LATB2=0;
  4732  0012FE  948A               	bcf	138,2,c	;volatile
  4733                           
  4734                           ;Servo.c: 330:             LATBbits.LATB2=1;
  4735  001300  848A               	bsf	138,2,c	;volatile
  4736  001302                     
  4737                           ;Servo.c: 331:             _delay((unsigned long)((1.830)*(8000000/4000.0)));
  4738  001302  0E05               	movlw	5
  4739  001304  6E01               	movwf	??_Servo_Tres_120^0,c
  4740  001306  0EC0               	movlw	192
  4741  001308                     u1557:
  4742  001308  2EE8               	decfsz	wreg,f,c
  4743  00130A  D7FE               	bra	u1557
  4744  00130C  2E01               	decfsz	??_Servo_Tres_120^0,f,c
  4745  00130E  D7FC               	bra	u1557
  4746  001310                     
  4747                           ;Servo.c: 332:             LATBbits.LATB2=0;
  4748  001310  948A               	bcf	138,2,c	;volatile
  4749                           
  4750                           ;Servo.c: 333:             _delay((unsigned long)((20-1.830)*(8000000/4000.0)));}
  4751  001312  0E30               	movlw	48
  4752  001314  6E01               	movwf	??_Servo_Tres_120^0,c
  4753  001316  0E30               	movlw	48
  4754  001318                     u1567:
  4755  001318  2EE8               	decfsz	wreg,f,c
  4756  00131A  D7FE               	bra	u1567
  4757  00131C  2E01               	decfsz	??_Servo_Tres_120^0,f,c
  4758  00131E  D7FC               	bra	u1567
  4759  001320  D000               	nop2	
  4760  001322  4A02               	infsnz	Servo_Tres_120@i^0,f,c
  4761  001324  2A03               	incf	(Servo_Tres_120@i+1)^0,f,c
  4762  001326  BE03               	btfsc	(Servo_Tres_120@i+1)^0,7,c
  4763  001328  EF9F  F009         	goto	u151
  4764  00132C  5003               	movf	(Servo_Tres_120@i+1)^0,w,c
  4765  00132E  E109               	bnz	u150
  4766  001330  0E10               	movlw	16
  4767  001332  5C02               	subwf	Servo_Tres_120@i^0,w,c
  4768  001334  A0D8               	btfss	status,0,c
  4769  001336  EF9F  F009         	goto	u151
  4770  00133A  EFA1  F009         	goto	u150
  4771  00133E                     u151:
  4772  00133E  EF7F  F009         	goto	l334
  4773  001342                     u150:
  4774  001342  0012               	return		;funcret
  4775  001344                     __end_of_Servo_Tres_120:
  4776                           	opt callstack 0
  4777                           
  4778 ;; *************** function _Servo_Tres_105 *****************
  4779 ;; Defined at:
  4780 ;;		line 318 in file "Servo.c"
  4781 ;; Parameters:    Size  Location     Type
  4782 ;;		None
  4783 ;; Auto vars:     Size  Location     Type
  4784 ;;  i               2    1[COMRAM] int 
  4785 ;; Return value:  Size  Location     Type
  4786 ;;                  1    wreg      void 
  4787 ;; Registers used:
  4788 ;;		wreg, status,2, status,0
  4789 ;; Tracked objects:
  4790 ;;		On entry : 0/0
  4791 ;;		On exit  : 0/0
  4792 ;;		Unchanged: 0/0
  4793 ;; Data sizes:     COMRAM   BANK0   BANK1   BANK2   BANK3   BANK4   BANK5   BANK6   BANK7
  4794 ;;      Params:         0       0       0       0       0       0       0       0       0
  4795 ;;      Locals:         2       0       0       0       0       0       0       0       0
  4796 ;;      Temps:          1       0       0       0       0       0       0       0       0
  4797 ;;      Totals:         3       0       0       0       0       0       0       0       0
  4798 ;;Total ram usage:        3 bytes
  4799 ;; Hardware stack levels used:    1
  4800 ;; This function calls:
  4801 ;;		Nothing
  4802 ;; This function is called by:
  4803 ;;		_Servos_150_30
  4804 ;;		_Servos_150_60
  4805 ;;		_Servos_150_90
  4806 ;;		_Servos_150_120
  4807 ;;		_Servos_150_150
  4808 ;; This function uses a non-reentrant model
  4809 ;;
  4810                           
  4811                           	psect	text48
  4812  000CD6                     __ptext48:
  4813                           	opt callstack 0
  4814  000CD6                     _Servo_Tres_105:
  4815                           	opt callstack 29
  4816  000CD6                     
  4817                           ;Servo.c: 319:              for(int i=0;i<16;i++){
  4818  000CD6  0E00               	movlw	0
  4819  000CD8  6E03               	movwf	(Servo_Tres_105@i+1)^0,c
  4820  000CDA  0E00               	movlw	0
  4821  000CDC  6E02               	movwf	Servo_Tres_105@i^0,c
  4822  000CDE                     l329:
  4823                           
  4824                           ;Servo.c: 320:             LATBbits.LATB2=0;
  4825  000CDE  948A               	bcf	138,2,c	;volatile
  4826                           
  4827                           ;Servo.c: 321:             LATBbits.LATB2=1;
  4828  000CE0  848A               	bsf	138,2,c	;volatile
  4829  000CE2                     
  4830                           ;Servo.c: 322:             _delay((unsigned long)((1.670)*(8000000/4000.0)));
  4831  000CE2  0E05               	movlw	5
  4832  000CE4  6E01               	movwf	??_Servo_Tres_105^0,c
  4833  000CE6  0E55               	movlw	85
  4834  000CE8                     u1577:
  4835  000CE8  2EE8               	decfsz	wreg,f,c
  4836  000CEA  D7FE               	bra	u1577
  4837  000CEC  2E01               	decfsz	??_Servo_Tres_105^0,f,c
  4838  000CEE  D7FC               	bra	u1577
  4839  000CF0  F000               	nop	
  4840  000CF2                     
  4841                           ;Servo.c: 323:             LATBbits.LATB2=0;
  4842  000CF2  948A               	bcf	138,2,c	;volatile
  4843                           
  4844                           ;Servo.c: 324:             _delay((unsigned long)((20-1.670)*(8000000/4000.0)));}
  4845  000CF4  0E30               	movlw	48
  4846  000CF6  6E01               	movwf	??_Servo_Tres_105^0,c
  4847  000CF8  0E9B               	movlw	155
  4848  000CFA                     u1587:
  4849  000CFA  2EE8               	decfsz	wreg,f,c
  4850  000CFC  D7FE               	bra	u1587
  4851  000CFE  2E01               	decfsz	??_Servo_Tres_105^0,f,c
  4852  000D00  D7FC               	bra	u1587
  4853  000D02  F000               	nop	
  4854  000D04  4A02               	infsnz	Servo_Tres_105@i^0,f,c
  4855  000D06  2A03               	incf	(Servo_Tres_105@i+1)^0,f,c
  4856  000D08  BE03               	btfsc	(Servo_Tres_105@i+1)^0,7,c
  4857  000D0A  EF90  F006         	goto	u91
  4858  000D0E  5003               	movf	(Servo_Tres_105@i+1)^0,w,c
  4859  000D10  E109               	bnz	u90
  4860  000D12  0E10               	movlw	16
  4861  000D14  5C02               	subwf	Servo_Tres_105@i^0,w,c
  4862  000D16  A0D8               	btfss	status,0,c
  4863  000D18  EF90  F006         	goto	u91
  4864  000D1C  EF92  F006         	goto	u90
  4865  000D20                     u91:
  4866  000D20  EF6F  F006         	goto	l329
  4867  000D24                     u90:
  4868  000D24  0012               	return		;funcret
  4869  000D26                     __end_of_Servo_Tres_105:
  4870                           	opt callstack 0
  4871                           
  4872 ;; *************** function _Servo_Cuatro_90 *****************
  4873 ;; Defined at:
  4874 ;;		line 428 in file "Servo.c"
  4875 ;; Parameters:    Size  Location     Type
  4876 ;;		None
  4877 ;; Auto vars:     Size  Location     Type
  4878 ;;  i               2    1[COMRAM] int 
  4879 ;; Return value:  Size  Location     Type
  4880 ;;                  1    wreg      void 
  4881 ;; Registers used:
  4882 ;;		wreg, status,2, status,0
  4883 ;; Tracked objects:
  4884 ;;		On entry : 0/0
  4885 ;;		On exit  : 0/0
  4886 ;;		Unchanged: 0/0
  4887 ;; Data sizes:     COMRAM   BANK0   BANK1   BANK2   BANK3   BANK4   BANK5   BANK6   BANK7
  4888 ;;      Params:         0       0       0       0       0       0       0       0       0
  4889 ;;      Locals:         2       0       0       0       0       0       0       0       0
  4890 ;;      Temps:          1       0       0       0       0       0       0       0       0
  4891 ;;      Totals:         3       0       0       0       0       0       0       0       0
  4892 ;;Total ram usage:        3 bytes
  4893 ;; Hardware stack levels used:    1
  4894 ;; This function calls:
  4895 ;;		Nothing
  4896 ;; This function is called by:
  4897 ;;		_Servos_150_30
  4898 ;;		_Servos_150_60
  4899 ;;		_Servos_150_90
  4900 ;;		_Servos_150_120
  4901 ;;		_Servos_150_150
  4902 ;; This function uses a non-reentrant model
  4903 ;;
  4904                           
  4905                           	psect	text49
  4906  001344                     __ptext49:
  4907                           	opt callstack 0
  4908  001344                     _Servo_Cuatro_90:
  4909                           	opt callstack 29
  4910  001344                     
  4911                           ;Servo.c: 429:              for(int i=0;i<16;i++){
  4912  001344  0E00               	movlw	0
  4913  001346  6E03               	movwf	(Servo_Cuatro_90@i+1)^0,c
  4914  001348  0E00               	movlw	0
  4915  00134A  6E02               	movwf	Servo_Cuatro_90@i^0,c
  4916  00134C                     l389:
  4917                           
  4918                           ;Servo.c: 430:             LATBbits.LATB3=0;
  4919  00134C  968A               	bcf	138,3,c	;volatile
  4920                           
  4921                           ;Servo.c: 431:             LATBbits.LATB3=1;
  4922  00134E  868A               	bsf	138,3,c	;volatile
  4923  001350                     
  4924                           ;Servo.c: 432:             _delay((unsigned long)((1.500)*(8000000/4000.0)));
  4925  001350  0E04               	movlw	4
  4926  001352  6E01               	movwf	??_Servo_Cuatro_90^0,c
  4927  001354  0EE4               	movlw	228
  4928  001356                     u1597:
  4929  001356  2EE8               	decfsz	wreg,f,c
  4930  001358  D7FE               	bra	u1597
  4931  00135A  2E01               	decfsz	??_Servo_Cuatro_90^0,f,c
  4932  00135C  D7FC               	bra	u1597
  4933  00135E  D000               	nop2	
  4934  001360                     
  4935                           ;Servo.c: 433:             LATBbits.LATB3=0;
  4936  001360  968A               	bcf	138,3,c	;volatile
  4937                           
  4938                           ;Servo.c: 434:             _delay((unsigned long)((20-1.500)*(8000000/4000.0)));}
  4939  001362  0E31               	movlw	49
  4940  001364  6E01               	movwf	??_Servo_Cuatro_90^0,c
  4941  001366  0E0C               	movlw	12
  4942  001368                     u1607:
  4943  001368  2EE8               	decfsz	wreg,f,c
  4944  00136A  D7FE               	bra	u1607
  4945  00136C  2E01               	decfsz	??_Servo_Cuatro_90^0,f,c
  4946  00136E  D7FC               	bra	u1607
  4947  001370  4A02               	infsnz	Servo_Cuatro_90@i^0,f,c
  4948  001372  2A03               	incf	(Servo_Cuatro_90@i+1)^0,f,c
  4949  001374  BE03               	btfsc	(Servo_Cuatro_90@i+1)^0,7,c
  4950  001376  EFC6  F009         	goto	u81
  4951  00137A  5003               	movf	(Servo_Cuatro_90@i+1)^0,w,c
  4952  00137C  E109               	bnz	u80
  4953  00137E  0E10               	movlw	16
  4954  001380  5C02               	subwf	Servo_Cuatro_90@i^0,w,c
  4955  001382  A0D8               	btfss	status,0,c
  4956  001384  EFC6  F009         	goto	u81
  4957  001388  EFC8  F009         	goto	u80
  4958  00138C                     u81:
  4959  00138C  EFA6  F009         	goto	l389
  4960  001390                     u80:
  4961  001390  0012               	return		;funcret
  4962  001392                     __end_of_Servo_Cuatro_90:
  4963                           	opt callstack 0
  4964                           
  4965 ;; *************** function _Servo_Cuatro_60 *****************
  4966 ;; Defined at:
  4967 ;;		line 410 in file "Servo.c"
  4968 ;; Parameters:    Size  Location     Type
  4969 ;;		None
  4970 ;; Auto vars:     Size  Location     Type
  4971 ;;  i               2    1[COMRAM] int 
  4972 ;; Return value:  Size  Location     Type
  4973 ;;                  1    wreg      void 
  4974 ;; Registers used:
  4975 ;;		wreg, status,2, status,0
  4976 ;; Tracked objects:
  4977 ;;		On entry : 0/0
  4978 ;;		On exit  : 0/0
  4979 ;;		Unchanged: 0/0
  4980 ;; Data sizes:     COMRAM   BANK0   BANK1   BANK2   BANK3   BANK4   BANK5   BANK6   BANK7
  4981 ;;      Params:         0       0       0       0       0       0       0       0       0
  4982 ;;      Locals:         2       0       0       0       0       0       0       0       0
  4983 ;;      Temps:          1       0       0       0       0       0       0       0       0
  4984 ;;      Totals:         3       0       0       0       0       0       0       0       0
  4985 ;;Total ram usage:        3 bytes
  4986 ;; Hardware stack levels used:    1
  4987 ;; This function calls:
  4988 ;;		Nothing
  4989 ;; This function is called by:
  4990 ;;		_Servos_150_30
  4991 ;;		_Servos_150_60
  4992 ;;		_Servos_150_90
  4993 ;;		_Servos_150_120
  4994 ;;		_Servos_150_150
  4995 ;; This function uses a non-reentrant model
  4996 ;;
  4997                           
  4998                           	psect	text50
  4999  001392                     __ptext50:
  5000                           	opt callstack 0
  5001  001392                     _Servo_Cuatro_60:
  5002                           	opt callstack 29
  5003  001392                     
  5004                           ;Servo.c: 411:              for(int i=0;i<16;i++){
  5005  001392  0E00               	movlw	0
  5006  001394  6E03               	movwf	(Servo_Cuatro_60@i+1)^0,c
  5007  001396  0E00               	movlw	0
  5008  001398  6E02               	movwf	Servo_Cuatro_60@i^0,c
  5009  00139A                     l379:
  5010                           
  5011                           ;Servo.c: 412:             LATBbits.LATB3=0;
  5012  00139A  968A               	bcf	138,3,c	;volatile
  5013                           
  5014                           ;Servo.c: 413:             LATBbits.LATB3=1;
  5015  00139C  868A               	bsf	138,3,c	;volatile
  5016  00139E                     
  5017                           ;Servo.c: 414:             _delay((unsigned long)((1.170)*(8000000/4000.0)));
  5018  00139E  0E04               	movlw	4
  5019  0013A0  6E01               	movwf	??_Servo_Cuatro_60^0,c
  5020  0013A2  0E08               	movlw	8
  5021  0013A4                     u1617:
  5022  0013A4  2EE8               	decfsz	wreg,f,c
  5023  0013A6  D7FE               	bra	u1617
  5024  0013A8  2E01               	decfsz	??_Servo_Cuatro_60^0,f,c
  5025  0013AA  D7FC               	bra	u1617
  5026  0013AC  D000               	nop2	
  5027  0013AE                     
  5028                           ;Servo.c: 415:             LATBbits.LATB3=0;
  5029  0013AE  968A               	bcf	138,3,c	;volatile
  5030                           
  5031                           ;Servo.c: 416:             _delay((unsigned long)((20-1.170)*(8000000/4000.0)));}
  5032  0013B0  0E31               	movlw	49
  5033  0013B2  6E01               	movwf	??_Servo_Cuatro_60^0,c
  5034  0013B4  0EE8               	movlw	232
  5035  0013B6                     u1627:
  5036  0013B6  2EE8               	decfsz	wreg,f,c
  5037  0013B8  D7FE               	bra	u1627
  5038  0013BA  2E01               	decfsz	??_Servo_Cuatro_60^0,f,c
  5039  0013BC  D7FC               	bra	u1627
  5040  0013BE  4A02               	infsnz	Servo_Cuatro_60@i^0,f,c
  5041  0013C0  2A03               	incf	(Servo_Cuatro_60@i+1)^0,f,c
  5042  0013C2  BE03               	btfsc	(Servo_Cuatro_60@i+1)^0,7,c
  5043  0013C4  EFED  F009         	goto	u121
  5044  0013C8  5003               	movf	(Servo_Cuatro_60@i+1)^0,w,c
  5045  0013CA  E109               	bnz	u120
  5046  0013CC  0E10               	movlw	16
  5047  0013CE  5C02               	subwf	Servo_Cuatro_60@i^0,w,c
  5048  0013D0  A0D8               	btfss	status,0,c
  5049  0013D2  EFED  F009         	goto	u121
  5050  0013D6  EFEF  F009         	goto	u120
  5051  0013DA                     u121:
  5052  0013DA  EFCD  F009         	goto	l379
  5053  0013DE                     u120:
  5054  0013DE  0012               	return		;funcret
  5055  0013E0                     __end_of_Servo_Cuatro_60:
  5056                           	opt callstack 0
  5057                           
  5058 ;; *************** function _Servo_Cuatro_45 *****************
  5059 ;; Defined at:
  5060 ;;		line 401 in file "Servo.c"
  5061 ;; Parameters:    Size  Location     Type
  5062 ;;		None
  5063 ;; Auto vars:     Size  Location     Type
  5064 ;;  i               2    1[COMRAM] int 
  5065 ;; Return value:  Size  Location     Type
  5066 ;;                  1    wreg      void 
  5067 ;; Registers used:
  5068 ;;		wreg, status,2, status,0
  5069 ;; Tracked objects:
  5070 ;;		On entry : 0/0
  5071 ;;		On exit  : 0/0
  5072 ;;		Unchanged: 0/0
  5073 ;; Data sizes:     COMRAM   BANK0   BANK1   BANK2   BANK3   BANK4   BANK5   BANK6   BANK7
  5074 ;;      Params:         0       0       0       0       0       0       0       0       0
  5075 ;;      Locals:         2       0       0       0       0       0       0       0       0
  5076 ;;      Temps:          1       0       0       0       0       0       0       0       0
  5077 ;;      Totals:         3       0       0       0       0       0       0       0       0
  5078 ;;Total ram usage:        3 bytes
  5079 ;; Hardware stack levels used:    1
  5080 ;; This function calls:
  5081 ;;		Nothing
  5082 ;; This function is called by:
  5083 ;;		_Servos_150_30
  5084 ;;		_Servos_150_60
  5085 ;;		_Servos_150_90
  5086 ;;		_Servos_150_120
  5087 ;;		_Servos_150_150
  5088 ;; This function uses a non-reentrant model
  5089 ;;
  5090                           
  5091                           	psect	text51
  5092  0013E0                     __ptext51:
  5093                           	opt callstack 0
  5094  0013E0                     _Servo_Cuatro_45:
  5095                           	opt callstack 29
  5096  0013E0                     
  5097                           ;Servo.c: 402:              for(int i=0;i<16;i++){
  5098  0013E0  0E00               	movlw	0
  5099  0013E2  6E03               	movwf	(Servo_Cuatro_45@i+1)^0,c
  5100  0013E4  0E00               	movlw	0
  5101  0013E6  6E02               	movwf	Servo_Cuatro_45@i^0,c
  5102  0013E8                     l374:
  5103                           
  5104                           ;Servo.c: 403:             LATBbits.LATB3=0;
  5105  0013E8  968A               	bcf	138,3,c	;volatile
  5106                           
  5107                           ;Servo.c: 404:             LATBbits.LATB3=1;
  5108  0013EA  868A               	bsf	138,3,c	;volatile
  5109  0013EC                     
  5110                           ;Servo.c: 405:             _delay((unsigned long)((1.000)*(8000000/4000.0)));
  5111  0013EC  0E03               	movlw	3
  5112  0013EE  6E01               	movwf	??_Servo_Cuatro_45^0,c
  5113  0013F0  0E98               	movlw	152
  5114  0013F2                     u1637:
  5115  0013F2  2EE8               	decfsz	wreg,f,c
  5116  0013F4  D7FE               	bra	u1637
  5117  0013F6  2E01               	decfsz	??_Servo_Cuatro_45^0,f,c
  5118  0013F8  D7FC               	bra	u1637
  5119  0013FA                     
  5120                           ;Servo.c: 406:             LATBbits.LATB3=0;
  5121  0013FA  968A               	bcf	138,3,c	;volatile
  5122                           
  5123                           ;Servo.c: 407:             _delay((unsigned long)((20-1.000)*(8000000/4000.0)));}
  5124  0013FC  0E32               	movlw	50
  5125  0013FE  6E01               	movwf	??_Servo_Cuatro_45^0,c
  5126  001400  0E58               	movlw	88
  5127  001402                     u1647:
  5128  001402  2EE8               	decfsz	wreg,f,c
  5129  001404  D7FE               	bra	u1647
  5130  001406  2E01               	decfsz	??_Servo_Cuatro_45^0,f,c
  5131  001408  D7FC               	bra	u1647
  5132  00140A  D000               	nop2	
  5133  00140C  4A02               	infsnz	Servo_Cuatro_45@i^0,f,c
  5134  00140E  2A03               	incf	(Servo_Cuatro_45@i+1)^0,f,c
  5135  001410  BE03               	btfsc	(Servo_Cuatro_45@i+1)^0,7,c
  5136  001412  EF14  F00A         	goto	u141
  5137  001416  5003               	movf	(Servo_Cuatro_45@i+1)^0,w,c
  5138  001418  E109               	bnz	u140
  5139  00141A  0E10               	movlw	16
  5140  00141C  5C02               	subwf	Servo_Cuatro_45@i^0,w,c
  5141  00141E  A0D8               	btfss	status,0,c
  5142  001420  EF14  F00A         	goto	u141
  5143  001424  EF16  F00A         	goto	u140
  5144  001428                     u141:
  5145  001428  EFF4  F009         	goto	l374
  5146  00142C                     u140:
  5147  00142C  0012               	return		;funcret
  5148  00142E                     __end_of_Servo_Cuatro_45:
  5149                           	opt callstack 0
  5150                           
  5151 ;; *************** function _Servo_Cuatro_30 *****************
  5152 ;; Defined at:
  5153 ;;		line 392 in file "Servo.c"
  5154 ;; Parameters:    Size  Location     Type
  5155 ;;		None
  5156 ;; Auto vars:     Size  Location     Type
  5157 ;;  i               2    1[COMRAM] int 
  5158 ;; Return value:  Size  Location     Type
  5159 ;;                  1    wreg      void 
  5160 ;; Registers used:
  5161 ;;		wreg, status,2, status,0
  5162 ;; Tracked objects:
  5163 ;;		On entry : 0/0
  5164 ;;		On exit  : 0/0
  5165 ;;		Unchanged: 0/0
  5166 ;; Data sizes:     COMRAM   BANK0   BANK1   BANK2   BANK3   BANK4   BANK5   BANK6   BANK7
  5167 ;;      Params:         0       0       0       0       0       0       0       0       0
  5168 ;;      Locals:         2       0       0       0       0       0       0       0       0
  5169 ;;      Temps:          1       0       0       0       0       0       0       0       0
  5170 ;;      Totals:         3       0       0       0       0       0       0       0       0
  5171 ;;Total ram usage:        3 bytes
  5172 ;; Hardware stack levels used:    1
  5173 ;; This function calls:
  5174 ;;		Nothing
  5175 ;; This function is called by:
  5176 ;;		_Servos_150_60
  5177 ;;		_Servos_150_90
  5178 ;;		_Servos_150_120
  5179 ;;		_Servos_150_150
  5180 ;; This function uses a non-reentrant model
  5181 ;;
  5182                           
  5183                           	psect	text52
  5184  0018E2                     __ptext52:
  5185                           	opt callstack 0
  5186  0018E2                     _Servo_Cuatro_30:
  5187                           	opt callstack 29
  5188  0018E2                     
  5189                           ;Servo.c: 393:              for(int i=0;i<16;i++){
  5190  0018E2  0E00               	movlw	0
  5191  0018E4  6E03               	movwf	(Servo_Cuatro_30@i+1)^0,c
  5192  0018E6  0E00               	movlw	0
  5193  0018E8  6E02               	movwf	Servo_Cuatro_30@i^0,c
  5194  0018EA                     l369:
  5195                           
  5196                           ;Servo.c: 394:             LATBbits.LATB3=0;
  5197  0018EA  968A               	bcf	138,3,c	;volatile
  5198                           
  5199                           ;Servo.c: 395:             LATBbits.LATB3=1;
  5200  0018EC  868A               	bsf	138,3,c	;volatile
  5201  0018EE                     
  5202                           ;Servo.c: 396:             _delay((unsigned long)((0.830)*(8000000/4000.0)));
  5203  0018EE  0EED               	movlw	237
  5204  0018F0                     u1657:
  5205  0018F0  D000               	nop2	
  5206  0018F2  D000               	nop2	
  5207  0018F4  2EE8               	decfsz	wreg,f,c
  5208  0018F6  D7FC               	bra	u1657
  5209  0018F8  F000               	nop	
  5210  0018FA                     
  5211                           ;Servo.c: 397:             LATBbits.LATB3=0;
  5212  0018FA  968A               	bcf	138,3,c	;volatile
  5213                           
  5214                           ;Servo.c: 398:             _delay((unsigned long)((20-0.830)*(8000000/4000.0)));}
  5215  0018FC  0E32               	movlw	50
  5216  0018FE  6E01               	movwf	??_Servo_Cuatro_30^0,c
  5217  001900  0ECA               	movlw	202
  5218  001902                     u1667:
  5219  001902  2EE8               	decfsz	wreg,f,c
  5220  001904  D7FE               	bra	u1667
  5221  001906  2E01               	decfsz	??_Servo_Cuatro_30^0,f,c
  5222  001908  D7FC               	bra	u1667
  5223  00190A  4A02               	infsnz	Servo_Cuatro_30@i^0,f,c
  5224  00190C  2A03               	incf	(Servo_Cuatro_30@i+1)^0,f,c
  5225  00190E  BE03               	btfsc	(Servo_Cuatro_30@i+1)^0,7,c
  5226  001910  EF93  F00C         	goto	u181
  5227  001914  5003               	movf	(Servo_Cuatro_30@i+1)^0,w,c
  5228  001916  E109               	bnz	u180
  5229  001918  0E10               	movlw	16
  5230  00191A  5C02               	subwf	Servo_Cuatro_30@i^0,w,c
  5231  00191C  A0D8               	btfss	status,0,c
  5232  00191E  EF93  F00C         	goto	u181
  5233  001922  EF95  F00C         	goto	u180
  5234  001926                     u181:
  5235  001926  EF75  F00C         	goto	l369
  5236  00192A                     u180:
  5237  00192A  0012               	return		;funcret
  5238  00192C                     __end_of_Servo_Cuatro_30:
  5239                           	opt callstack 0
  5240                           
  5241 ;; *************** function _Servo_Cuatro_15 *****************
  5242 ;; Defined at:
  5243 ;;		line 383 in file "Servo.c"
  5244 ;; Parameters:    Size  Location     Type
  5245 ;;		None
  5246 ;; Auto vars:     Size  Location     Type
  5247 ;;  i               2    1[COMRAM] int 
  5248 ;; Return value:  Size  Location     Type
  5249 ;;                  1    wreg      void 
  5250 ;; Registers used:
  5251 ;;		wreg, status,2, status,0
  5252 ;; Tracked objects:
  5253 ;;		On entry : 0/0
  5254 ;;		On exit  : 0/0
  5255 ;;		Unchanged: 0/0
  5256 ;; Data sizes:     COMRAM   BANK0   BANK1   BANK2   BANK3   BANK4   BANK5   BANK6   BANK7
  5257 ;;      Params:         0       0       0       0       0       0       0       0       0
  5258 ;;      Locals:         2       0       0       0       0       0       0       0       0
  5259 ;;      Temps:          1       0       0       0       0       0       0       0       0
  5260 ;;      Totals:         3       0       0       0       0       0       0       0       0
  5261 ;;Total ram usage:        3 bytes
  5262 ;; Hardware stack levels used:    1
  5263 ;; This function calls:
  5264 ;;		Nothing
  5265 ;; This function is called by:
  5266 ;;		_Servos_150_120
  5267 ;;		_Servos_150_150
  5268 ;; This function uses a non-reentrant model
  5269 ;;
  5270                           
  5271                           	psect	text53
  5272  001646                     __ptext53:
  5273                           	opt callstack 0
  5274  001646                     _Servo_Cuatro_15:
  5275                           	opt callstack 29
  5276  001646                     
  5277                           ;Servo.c: 384:              for(int i=0;i<16;i++){
  5278  001646  0E00               	movlw	0
  5279  001648  6E03               	movwf	(Servo_Cuatro_15@i+1)^0,c
  5280  00164A  0E00               	movlw	0
  5281  00164C  6E02               	movwf	Servo_Cuatro_15@i^0,c
  5282  00164E                     l364:
  5283                           
  5284                           ;Servo.c: 385:             LATBbits.LATB3=0;
  5285  00164E  968A               	bcf	138,3,c	;volatile
  5286                           
  5287                           ;Servo.c: 386:             LATBbits.LATB3=1;
  5288  001650  868A               	bsf	138,3,c	;volatile
  5289  001652                     
  5290                           ;Servo.c: 387:             _delay((unsigned long)((0.670)*(8000000/4000.0)));
  5291  001652  0EBF               	movlw	191
  5292  001654                     u1677:
  5293  001654  D000               	nop2	
  5294  001656  D000               	nop2	
  5295  001658  2EE8               	decfsz	wreg,f,c
  5296  00165A  D7FC               	bra	u1677
  5297  00165C  D000               	nop2	
  5298  00165E  F000               	nop	
  5299  001660                     
  5300                           ;Servo.c: 388:             LATBbits.LATB3=0;
  5301  001660  968A               	bcf	138,3,c	;volatile
  5302                           
  5303                           ;Servo.c: 389:             _delay((unsigned long)((20-0.670)*(8000000/4000.0)));}
  5304  001662  0E33               	movlw	51
  5305  001664  6E01               	movwf	??_Servo_Cuatro_15^0,c
  5306  001666  0E34               	movlw	52
  5307  001668                     u1687:
  5308  001668  2EE8               	decfsz	wreg,f,c
  5309  00166A  D7FE               	bra	u1687
  5310  00166C  2E01               	decfsz	??_Servo_Cuatro_15^0,f,c
  5311  00166E  D7FC               	bra	u1687
  5312  001670  4A02               	infsnz	Servo_Cuatro_15@i^0,f,c
  5313  001672  2A03               	incf	(Servo_Cuatro_15@i+1)^0,f,c
  5314  001674  BE03               	btfsc	(Servo_Cuatro_15@i+1)^0,7,c
  5315  001676  EF46  F00B         	goto	u221
  5316  00167A  5003               	movf	(Servo_Cuatro_15@i+1)^0,w,c
  5317  00167C  E109               	bnz	u220
  5318  00167E  0E10               	movlw	16
  5319  001680  5C02               	subwf	Servo_Cuatro_15@i^0,w,c
  5320  001682  A0D8               	btfss	status,0,c
  5321  001684  EF46  F00B         	goto	u221
  5322  001688  EF48  F00B         	goto	u220
  5323  00168C                     u221:
  5324  00168C  EF27  F00B         	goto	l364
  5325  001690                     u220:
  5326  001690  0012               	return		;funcret
  5327  001692                     __end_of_Servo_Cuatro_15:
  5328                           	opt callstack 0
  5329                           
  5330 ;; *************** function _Servo_Cuatro_135 *****************
  5331 ;; Defined at:
  5332 ;;		line 455 in file "Servo.c"
  5333 ;; Parameters:    Size  Location     Type
  5334 ;;		None
  5335 ;; Auto vars:     Size  Location     Type
  5336 ;;  i               2    1[COMRAM] int 
  5337 ;; Return value:  Size  Location     Type
  5338 ;;                  1    wreg      void 
  5339 ;; Registers used:
  5340 ;;		wreg, status,2, status,0
  5341 ;; Tracked objects:
  5342 ;;		On entry : 0/0
  5343 ;;		On exit  : 0/0
  5344 ;;		Unchanged: 0/0
  5345 ;; Data sizes:     COMRAM   BANK0   BANK1   BANK2   BANK3   BANK4   BANK5   BANK6   BANK7
  5346 ;;      Params:         0       0       0       0       0       0       0       0       0
  5347 ;;      Locals:         2       0       0       0       0       0       0       0       0
  5348 ;;      Temps:          1       0       0       0       0       0       0       0       0
  5349 ;;      Totals:         3       0       0       0       0       0       0       0       0
  5350 ;;Total ram usage:        3 bytes
  5351 ;; Hardware stack levels used:    1
  5352 ;; This function calls:
  5353 ;;		Nothing
  5354 ;; This function is called by:
  5355 ;;		_Servos_150_120
  5356 ;;		_Servos_150_150
  5357 ;; This function uses a non-reentrant model
  5358 ;;
  5359                           
  5360                           	psect	text54
  5361  00142E                     __ptext54:
  5362                           	opt callstack 0
  5363  00142E                     _Servo_Cuatro_135:
  5364                           	opt callstack 29
  5365  00142E                     
  5366                           ;Servo.c: 456:              for(int i=0;i<16;i++){
  5367  00142E  0E00               	movlw	0
  5368  001430  6E03               	movwf	(Servo_Cuatro_135@i+1)^0,c
  5369  001432  0E00               	movlw	0
  5370  001434  6E02               	movwf	Servo_Cuatro_135@i^0,c
  5371  001436                     l404:
  5372                           
  5373                           ;Servo.c: 457:             LATBbits.LATB3=0;
  5374  001436  968A               	bcf	138,3,c	;volatile
  5375                           
  5376                           ;Servo.c: 458:             LATBbits.LATB3=1;
  5377  001438  868A               	bsf	138,3,c	;volatile
  5378  00143A                     
  5379                           ;Servo.c: 459:             _delay((unsigned long)((2.000)*(8000000/4000.0)));
  5380  00143A  0E06               	movlw	6
  5381  00143C  6E01               	movwf	??_Servo_Cuatro_135^0,c
  5382  00143E  0E30               	movlw	48
  5383  001440                     u1697:
  5384  001440  2EE8               	decfsz	wreg,f,c
  5385  001442  D7FE               	bra	u1697
  5386  001444  2E01               	decfsz	??_Servo_Cuatro_135^0,f,c
  5387  001446  D7FC               	bra	u1697
  5388  001448  D000               	nop2	
  5389  00144A                     
  5390                           ;Servo.c: 460:             LATBbits.LATB3=0;
  5391  00144A  968A               	bcf	138,3,c	;volatile
  5392                           
  5393                           ;Servo.c: 461:             _delay((unsigned long)((20-2.000)*(8000000/4000.0)));}
  5394  00144C  0E2F               	movlw	47
  5395  00144E  6E01               	movwf	??_Servo_Cuatro_135^0,c
  5396  001450  0EC0               	movlw	192
  5397  001452                     u1707:
  5398  001452  2EE8               	decfsz	wreg,f,c
  5399  001454  D7FE               	bra	u1707
  5400  001456  2E01               	decfsz	??_Servo_Cuatro_135^0,f,c
  5401  001458  D7FC               	bra	u1707
  5402  00145A  4A02               	infsnz	Servo_Cuatro_135@i^0,f,c
  5403  00145C  2A03               	incf	(Servo_Cuatro_135@i+1)^0,f,c
  5404  00145E  BE03               	btfsc	(Servo_Cuatro_135@i+1)^0,7,c
  5405  001460  EF3B  F00A         	goto	u201
  5406  001464  5003               	movf	(Servo_Cuatro_135@i+1)^0,w,c
  5407  001466  E109               	bnz	u200
  5408  001468  0E10               	movlw	16
  5409  00146A  5C02               	subwf	Servo_Cuatro_135@i^0,w,c
  5410  00146C  A0D8               	btfss	status,0,c
  5411  00146E  EF3B  F00A         	goto	u201
  5412  001472  EF3D  F00A         	goto	u200
  5413  001476                     u201:
  5414  001476  EF1B  F00A         	goto	l404
  5415  00147A                     u200:
  5416  00147A  0012               	return		;funcret
  5417  00147C                     __end_of_Servo_Cuatro_135:
  5418                           	opt callstack 0
  5419                           
  5420 ;; *************** function _Servo_Cuatro_120 *****************
  5421 ;; Defined at:
  5422 ;;		line 446 in file "Servo.c"
  5423 ;; Parameters:    Size  Location     Type
  5424 ;;		None
  5425 ;; Auto vars:     Size  Location     Type
  5426 ;;  i               2    1[COMRAM] int 
  5427 ;; Return value:  Size  Location     Type
  5428 ;;                  1    wreg      void 
  5429 ;; Registers used:
  5430 ;;		wreg, status,2, status,0
  5431 ;; Tracked objects:
  5432 ;;		On entry : 0/0
  5433 ;;		On exit  : 0/0
  5434 ;;		Unchanged: 0/0
  5435 ;; Data sizes:     COMRAM   BANK0   BANK1   BANK2   BANK3   BANK4   BANK5   BANK6   BANK7
  5436 ;;      Params:         0       0       0       0       0       0       0       0       0
  5437 ;;      Locals:         2       0       0       0       0       0       0       0       0
  5438 ;;      Temps:          1       0       0       0       0       0       0       0       0
  5439 ;;      Totals:         3       0       0       0       0       0       0       0       0
  5440 ;;Total ram usage:        3 bytes
  5441 ;; Hardware stack levels used:    1
  5442 ;; This function calls:
  5443 ;;		Nothing
  5444 ;; This function is called by:
  5445 ;;		_Servos_150_60
  5446 ;;		_Servos_150_90
  5447 ;;		_Servos_150_120
  5448 ;;		_Servos_150_150
  5449 ;; This function uses a non-reentrant model
  5450 ;;
  5451                           
  5452                           	psect	text55
  5453  00147C                     __ptext55:
  5454                           	opt callstack 0
  5455  00147C                     _Servo_Cuatro_120:
  5456                           	opt callstack 29
  5457  00147C                     
  5458                           ;Servo.c: 447:              for(int i=0;i<16;i++){
  5459  00147C  0E00               	movlw	0
  5460  00147E  6E03               	movwf	(Servo_Cuatro_120@i+1)^0,c
  5461  001480  0E00               	movlw	0
  5462  001482  6E02               	movwf	Servo_Cuatro_120@i^0,c
  5463  001484                     l399:
  5464                           
  5465                           ;Servo.c: 448:             LATBbits.LATB3=0;
  5466  001484  968A               	bcf	138,3,c	;volatile
  5467                           
  5468                           ;Servo.c: 449:             LATBbits.LATB3=1;
  5469  001486  868A               	bsf	138,3,c	;volatile
  5470  001488                     
  5471                           ;Servo.c: 450:             _delay((unsigned long)((1.830)*(8000000/4000.0)));
  5472  001488  0E05               	movlw	5
  5473  00148A  6E01               	movwf	??_Servo_Cuatro_120^0,c
  5474  00148C  0EC0               	movlw	192
  5475  00148E                     u1717:
  5476  00148E  2EE8               	decfsz	wreg,f,c
  5477  001490  D7FE               	bra	u1717
  5478  001492  2E01               	decfsz	??_Servo_Cuatro_120^0,f,c
  5479  001494  D7FC               	bra	u1717
  5480  001496                     
  5481                           ;Servo.c: 451:             LATBbits.LATB3=0;
  5482  001496  968A               	bcf	138,3,c	;volatile
  5483                           
  5484                           ;Servo.c: 452:             _delay((unsigned long)((20-1.830)*(8000000/4000.0)));}
  5485  001498  0E30               	movlw	48
  5486  00149A  6E01               	movwf	??_Servo_Cuatro_120^0,c
  5487  00149C  0E30               	movlw	48
  5488  00149E                     u1727:
  5489  00149E  2EE8               	decfsz	wreg,f,c
  5490  0014A0  D7FE               	bra	u1727
  5491  0014A2  2E01               	decfsz	??_Servo_Cuatro_120^0,f,c
  5492  0014A4  D7FC               	bra	u1727
  5493  0014A6  D000               	nop2	
  5494  0014A8  4A02               	infsnz	Servo_Cuatro_120@i^0,f,c
  5495  0014AA  2A03               	incf	(Servo_Cuatro_120@i+1)^0,f,c
  5496  0014AC  BE03               	btfsc	(Servo_Cuatro_120@i+1)^0,7,c
  5497  0014AE  EF62  F00A         	goto	u161
  5498  0014B2  5003               	movf	(Servo_Cuatro_120@i+1)^0,w,c
  5499  0014B4  E109               	bnz	u160
  5500  0014B6  0E10               	movlw	16
  5501  0014B8  5C02               	subwf	Servo_Cuatro_120@i^0,w,c
  5502  0014BA  A0D8               	btfss	status,0,c
  5503  0014BC  EF62  F00A         	goto	u161
  5504  0014C0  EF64  F00A         	goto	u160
  5505  0014C4                     u161:
  5506  0014C4  EF42  F00A         	goto	l399
  5507  0014C8                     u160:
  5508  0014C8  0012               	return		;funcret
  5509  0014CA                     __end_of_Servo_Cuatro_120:
  5510                           	opt callstack 0
  5511                           
  5512 ;; *************** function _Servo_Cuatro_105 *****************
  5513 ;; Defined at:
  5514 ;;		line 437 in file "Servo.c"
  5515 ;; Parameters:    Size  Location     Type
  5516 ;;		None
  5517 ;; Auto vars:     Size  Location     Type
  5518 ;;  i               2    1[COMRAM] int 
  5519 ;; Return value:  Size  Location     Type
  5520 ;;                  1    wreg      void 
  5521 ;; Registers used:
  5522 ;;		wreg, status,2, status,0
  5523 ;; Tracked objects:
  5524 ;;		On entry : 0/0
  5525 ;;		On exit  : 0/0
  5526 ;;		Unchanged: 0/0
  5527 ;; Data sizes:     COMRAM   BANK0   BANK1   BANK2   BANK3   BANK4   BANK5   BANK6   BANK7
  5528 ;;      Params:         0       0       0       0       0       0       0       0       0
  5529 ;;      Locals:         2       0       0       0       0       0       0       0       0
  5530 ;;      Temps:          1       0       0       0       0       0       0       0       0
  5531 ;;      Totals:         3       0       0       0       0       0       0       0       0
  5532 ;;Total ram usage:        3 bytes
  5533 ;; Hardware stack levels used:    1
  5534 ;; This function calls:
  5535 ;;		Nothing
  5536 ;; This function is called by:
  5537 ;;		_Servos_150_30
  5538 ;;		_Servos_150_60
  5539 ;;		_Servos_150_90
  5540 ;;		_Servos_150_120
  5541 ;;		_Servos_150_150
  5542 ;; This function uses a non-reentrant model
  5543 ;;
  5544                           
  5545                           	psect	text56
  5546  000D26                     __ptext56:
  5547                           	opt callstack 0
  5548  000D26                     _Servo_Cuatro_105:
  5549                           	opt callstack 29
  5550  000D26                     
  5551                           ;Servo.c: 438:              for(int i=0;i<16;i++){
  5552  000D26  0E00               	movlw	0
  5553  000D28  6E03               	movwf	(Servo_Cuatro_105@i+1)^0,c
  5554  000D2A  0E00               	movlw	0
  5555  000D2C  6E02               	movwf	Servo_Cuatro_105@i^0,c
  5556  000D2E                     l394:
  5557                           
  5558                           ;Servo.c: 439:             LATBbits.LATB3=0;
  5559  000D2E  968A               	bcf	138,3,c	;volatile
  5560                           
  5561                           ;Servo.c: 440:             LATBbits.LATB3=1;
  5562  000D30  868A               	bsf	138,3,c	;volatile
  5563  000D32                     
  5564                           ;Servo.c: 441:             _delay((unsigned long)((1.670)*(8000000/4000.0)));
  5565  000D32  0E05               	movlw	5
  5566  000D34  6E01               	movwf	??_Servo_Cuatro_105^0,c
  5567  000D36  0E55               	movlw	85
  5568  000D38                     u1737:
  5569  000D38  2EE8               	decfsz	wreg,f,c
  5570  000D3A  D7FE               	bra	u1737
  5571  000D3C  2E01               	decfsz	??_Servo_Cuatro_105^0,f,c
  5572  000D3E  D7FC               	bra	u1737
  5573  000D40  F000               	nop	
  5574  000D42                     
  5575                           ;Servo.c: 442:             LATBbits.LATB3=0;
  5576  000D42  968A               	bcf	138,3,c	;volatile
  5577                           
  5578                           ;Servo.c: 443:             _delay((unsigned long)((20-1.670)*(8000000/4000.0)));}
  5579  000D44  0E30               	movlw	48
  5580  000D46  6E01               	movwf	??_Servo_Cuatro_105^0,c
  5581  000D48  0E9B               	movlw	155
  5582  000D4A                     u1747:
  5583  000D4A  2EE8               	decfsz	wreg,f,c
  5584  000D4C  D7FE               	bra	u1747
  5585  000D4E  2E01               	decfsz	??_Servo_Cuatro_105^0,f,c
  5586  000D50  D7FC               	bra	u1747
  5587  000D52  F000               	nop	
  5588  000D54  4A02               	infsnz	Servo_Cuatro_105@i^0,f,c
  5589  000D56  2A03               	incf	(Servo_Cuatro_105@i+1)^0,f,c
  5590  000D58  BE03               	btfsc	(Servo_Cuatro_105@i+1)^0,7,c
  5591  000D5A  EFB8  F006         	goto	u101
  5592  000D5E  5003               	movf	(Servo_Cuatro_105@i+1)^0,w,c
  5593  000D60  E109               	bnz	u100
  5594  000D62  0E10               	movlw	16
  5595  000D64  5C02               	subwf	Servo_Cuatro_105@i^0,w,c
  5596  000D66  A0D8               	btfss	status,0,c
  5597  000D68  EFB8  F006         	goto	u101
  5598  000D6C  EFBA  F006         	goto	u100
  5599  000D70                     u101:
  5600  000D70  EF97  F006         	goto	l394
  5601  000D74                     u100:
  5602  000D74  0012               	return		;funcret
  5603  000D76                     __end_of_Servo_Cuatro_105:
  5604                           	opt callstack 0
  5605                           
  5606 ;; *************** function _Rx *****************
  5607 ;; Defined at:
  5608 ;;		line 53 in file "Usart.c"
  5609 ;; Parameters:    Size  Location     Type
  5610 ;;		None
  5611 ;; Auto vars:     Size  Location     Type
  5612 ;;		None
  5613 ;; Return value:  Size  Location     Type
  5614 ;;                  1    wreg      unsigned char 
  5615 ;; Registers used:
  5616 ;;		wreg, status,2
  5617 ;; Tracked objects:
  5618 ;;		On entry : 0/0
  5619 ;;		On exit  : 0/0
  5620 ;;		Unchanged: 0/0
  5621 ;; Data sizes:     COMRAM   BANK0   BANK1   BANK2   BANK3   BANK4   BANK5   BANK6   BANK7
  5622 ;;      Params:         0       0       0       0       0       0       0       0       0
  5623 ;;      Locals:         0       0       0       0       0       0       0       0       0
  5624 ;;      Temps:          0       0       0       0       0       0       0       0       0
  5625 ;;      Totals:         0       0       0       0       0       0       0       0       0
  5626 ;;Total ram usage:        0 bytes
  5627 ;; Hardware stack levels used:    1
  5628 ;; This function calls:
  5629 ;;		Nothing
  5630 ;; This function is called by:
  5631 ;;		_main
  5632 ;; This function uses a non-reentrant model
  5633 ;;
  5634                           
  5635                           	psect	text57
  5636  001C76                     __ptext57:
  5637                           	opt callstack 0
  5638  001C76                     _Rx:
  5639                           	opt callstack 30
  5640  001C76                     
  5641                           ;Usart.c: 54:     return RCREG;
  5642  001C76  50AE               	movf	174,w,c	;volatile
  5643  001C78  0012               	return		;funcret
  5644  001C7A                     __end_of_Rx:
  5645                           	opt callstack 0
  5646                           
  5647 ;; *************** function _Interrupciones_Usart *****************
  5648 ;; Defined at:
  5649 ;;		line 30 in file "Usart.c"
  5650 ;; Parameters:    Size  Location     Type
  5651 ;;  priority        1    wreg     unsigned char 
  5652 ;; Auto vars:     Size  Location     Type
  5653 ;;  priority        1    1[COMRAM] unsigned char 
  5654 ;; Return value:  Size  Location     Type
  5655 ;;                  1    wreg      void 
  5656 ;; Registers used:
  5657 ;;		wreg, status,2, status,0
  5658 ;; Tracked objects:
  5659 ;;		On entry : 0/0
  5660 ;;		On exit  : 0/0
  5661 ;;		Unchanged: 0/0
  5662 ;; Data sizes:     COMRAM   BANK0   BANK1   BANK2   BANK3   BANK4   BANK5   BANK6   BANK7
  5663 ;;      Params:         0       0       0       0       0       0       0       0       0
  5664 ;;      Locals:         1       0       0       0       0       0       0       0       0
  5665 ;;      Temps:          1       0       0       0       0       0       0       0       0
  5666 ;;      Totals:         2       0       0       0       0       0       0       0       0
  5667 ;;Total ram usage:        2 bytes
  5668 ;; Hardware stack levels used:    1
  5669 ;; This function calls:
  5670 ;;		Nothing
  5671 ;; This function is called by:
  5672 ;;		_main
  5673 ;; This function uses a non-reentrant model
  5674 ;;
  5675                           
  5676                           	psect	text58
  5677  001B9C                     __ptext58:
  5678                           	opt callstack 0
  5679  001B9C                     _Interrupciones_Usart:
  5680                           	opt callstack 30
  5681                           
  5682                           ;incstack = 0
  5683                           ;Interrupciones_Usart@priority stored from wreg
  5684  001B9C  6E02               	movwf	Interrupciones_Usart@priority^0,c
  5685  001B9E                     
  5686                           ;Usart.c: 34:     PIR1bits.TXIF=0;
  5687  001B9E  989E               	bcf	158,4,c	;volatile
  5688  001BA0                     
  5689                           ;Usart.c: 35:     IPR1bits.TXIP=~priority;
  5690  001BA0  5002               	movf	Interrupciones_Usart@priority^0,w,c
  5691  001BA2  0AFF               	xorlw	255
  5692  001BA4  6E01               	movwf	??_Interrupciones_Usart^0,c
  5693  001BA6  3A01               	swapf	??_Interrupciones_Usart^0,f,c
  5694  001BA8  509F               	movf	159,w,c	;volatile
  5695  001BAA  1801               	xorwf	??_Interrupciones_Usart^0,w,c
  5696  001BAC  0BEF               	andlw	-17
  5697  001BAE  1801               	xorwf	??_Interrupciones_Usart^0,w,c
  5698  001BB0  6E9F               	movwf	159,c	;volatile
  5699  001BB2                     
  5700                           ;Usart.c: 36:     PIE1bits.TXIE=1;
  5701  001BB2  889D               	bsf	157,4,c	;volatile
  5702  001BB4                     
  5703                           ;Usart.c: 39:     PIR1bits.RCIF=0;
  5704  001BB4  9A9E               	bcf	158,5,c	;volatile
  5705  001BB6                     
  5706                           ;Usart.c: 40:     IPR1bits.RCIP=priority;
  5707  001BB6  B002               	btfsc	Interrupciones_Usart@priority^0,0,c
  5708  001BB8  D002               	bra	u485
  5709  001BBA  9A9F               	bcf	159,5,c	;volatile
  5710  001BBC  D001               	bra	u486
  5711  001BBE                     u485:
  5712  001BBE  8A9F               	bsf	159,5,c	;volatile
  5713  001BC0                     u486:
  5714  001BC0                     
  5715                           ;Usart.c: 41:     PIE1bits.RCIE=1;
  5716  001BC0  8A9D               	bsf	157,5,c	;volatile
  5717  001BC2  0012               	return		;funcret
  5718  001BC4                     __end_of_Interrupciones_Usart:
  5719                           	opt callstack 0
  5720                           
  5721 ;; *************** function _Inicializacion *****************
  5722 ;; Defined at:
  5723 ;;		line 8 in file "Confi.c"
  5724 ;; Parameters:    Size  Location     Type
  5725 ;;		None
  5726 ;; Auto vars:     Size  Location     Type
  5727 ;;		None
  5728 ;; Return value:  Size  Location     Type
  5729 ;;                  1    wreg      void 
  5730 ;; Registers used:
  5731 ;;		wreg, status,2, status,0, cstack
  5732 ;; Tracked objects:
  5733 ;;		On entry : 0/0
  5734 ;;		On exit  : 0/0
  5735 ;;		Unchanged: 0/0
  5736 ;; Data sizes:     COMRAM   BANK0   BANK1   BANK2   BANK3   BANK4   BANK5   BANK6   BANK7
  5737 ;;      Params:         0       0       0       0       0       0       0       0       0
  5738 ;;      Locals:         0       0       0       0       0       0       0       0       0
  5739 ;;      Temps:          0       0       0       0       0       0       0       0       0
  5740 ;;      Totals:         0       0       0       0       0       0       0       0       0
  5741 ;;Total ram usage:        0 bytes
  5742 ;; Hardware stack levels used:    1
  5743 ;; Hardware stack levels required when called:    2
  5744 ;; This function calls:
  5745 ;;		_Confi_Blue
  5746 ;;		_Confi_Servo
  5747 ;;		_Servo_Posicion_Inicial
  5748 ;; This function is called by:
  5749 ;;		_main
  5750 ;; This function uses a non-reentrant model
  5751 ;;
  5752                           
  5753                           	psect	text59
  5754  001C2C                     __ptext59:
  5755                           	opt callstack 0
  5756  001C2C                     _Inicializacion:
  5757                           	opt callstack 28
  5758  001C2C                     
  5759                           ;Confi.c: 10:     OSCCONbits.IRCF=0b111;
  5760  001C2C  0E70               	movlw	112
  5761  001C2E  12D3               	iorwf	211,f,c	;volatile
  5762                           
  5763                           ;Confi.c: 11:     ADCON1bits.PCFG=0xF;
  5764  001C30  0E0F               	movlw	15
  5765  001C32  12C1               	iorwf	193,f,c	;volatile
  5766  001C34                     
  5767                           ;Confi.c: 12:     RCONbits.IPEN = 1;
  5768  001C34  8ED0               	bsf	208,7,c	;volatile
  5769  001C36                     
  5770                           ;Confi.c: 14:     Confi_Servo();
  5771  001C36  EC34  F00E         	call	_Confi_Servo	;wreg free
  5772  001C3A                     
  5773                           ;Confi.c: 15:     Servo_Posicion_Inicial();
  5774  001C3A  ECFC  F00D         	call	_Servo_Posicion_Inicial	;wreg free
  5775  001C3E                     
  5776                           ;Confi.c: 16:     Confi_Blue();
  5777  001C3E  EC09  F00E         	call	_Confi_Blue	;wreg free
  5778  001C42  0012               	return		;funcret
  5779  001C44                     __end_of_Inicializacion:
  5780                           	opt callstack 0
  5781                           
  5782 ;; *************** function _Servo_Posicion_Inicial *****************
  5783 ;; Defined at:
  5784 ;;		line 732 in file "Servo.c"
  5785 ;; Parameters:    Size  Location     Type
  5786 ;;		None
  5787 ;; Auto vars:     Size  Location     Type
  5788 ;;		None
  5789 ;; Return value:  Size  Location     Type
  5790 ;;                  1    wreg      void 
  5791 ;; Registers used:
  5792 ;;		wreg, status,2, status,0, cstack
  5793 ;; Tracked objects:
  5794 ;;		On entry : 0/0
  5795 ;;		On exit  : 0/0
  5796 ;;		Unchanged: 0/0
  5797 ;; Data sizes:     COMRAM   BANK0   BANK1   BANK2   BANK3   BANK4   BANK5   BANK6   BANK7
  5798 ;;      Params:         0       0       0       0       0       0       0       0       0
  5799 ;;      Locals:         0       0       0       0       0       0       0       0       0
  5800 ;;      Temps:          0       0       0       0       0       0       0       0       0
  5801 ;;      Totals:         0       0       0       0       0       0       0       0       0
  5802 ;;Total ram usage:        0 bytes
  5803 ;; Hardware stack levels used:    1
  5804 ;; Hardware stack levels required when called:    1
  5805 ;; This function calls:
  5806 ;;		_Servo_Cinco_0
  5807 ;;		_Servo_Cuatro_75
  5808 ;;		_Servo_Dos_0
  5809 ;;		_Servo_Seis_0
  5810 ;;		_Servo_Tres_75
  5811 ;;		_Servo_Uno_0
  5812 ;; This function is called by:
  5813 ;;		_Inicializacion
  5814 ;; This function uses a non-reentrant model
  5815 ;;
  5816                           
  5817                           	psect	text60
  5818  001BF8                     __ptext60:
  5819                           	opt callstack 0
  5820  001BF8                     _Servo_Posicion_Inicial:
  5821                           	opt callstack 28
  5822  001BF8                     
  5823                           ;Servo.c: 734:     Servo_Uno_0();
  5824  001BF8  ECDE  F00C         	call	_Servo_Uno_0	;wreg free
  5825                           
  5826                           ;Servo.c: 735:     Servo_Dos_0();
  5827  001BFC  EC26  F00D         	call	_Servo_Dos_0	;wreg free
  5828                           
  5829                           ;Servo.c: 737:     Servo_Tres_75();
  5830  001C00  ECBB  F006         	call	_Servo_Tres_75	;wreg free
  5831                           
  5832                           ;Servo.c: 738:     Servo_Cuatro_75();
  5833  001C04  ECE3  F006         	call	_Servo_Cuatro_75	;wreg free
  5834                           
  5835                           ;Servo.c: 740:     Servo_Cinco_0();
  5836  001C08  EC4A  F00D         	call	_Servo_Cinco_0	;wreg free
  5837                           
  5838                           ;Servo.c: 741:     Servo_Seis_0();
  5839  001C0C  EC02  F00D         	call	_Servo_Seis_0	;wreg free
  5840  001C10  0012               	return		;funcret
  5841  001C12                     __end_of_Servo_Posicion_Inicial:
  5842                           	opt callstack 0
  5843                           
  5844 ;; *************** function _Servo_Uno_0 *****************
  5845 ;; Defined at:
  5846 ;;		line 17 in file "Servo.c"
  5847 ;; Parameters:    Size  Location     Type
  5848 ;;		None
  5849 ;; Auto vars:     Size  Location     Type
  5850 ;;  i               2    1[COMRAM] int 
  5851 ;; Return value:  Size  Location     Type
  5852 ;;                  1    wreg      void 
  5853 ;; Registers used:
  5854 ;;		wreg, status,2, status,0
  5855 ;; Tracked objects:
  5856 ;;		On entry : 0/0
  5857 ;;		On exit  : 0/0
  5858 ;;		Unchanged: 0/0
  5859 ;; Data sizes:     COMRAM   BANK0   BANK1   BANK2   BANK3   BANK4   BANK5   BANK6   BANK7
  5860 ;;      Params:         0       0       0       0       0       0       0       0       0
  5861 ;;      Locals:         2       0       0       0       0       0       0       0       0
  5862 ;;      Temps:          1       0       0       0       0       0       0       0       0
  5863 ;;      Totals:         3       0       0       0       0       0       0       0       0
  5864 ;;Total ram usage:        3 bytes
  5865 ;; Hardware stack levels used:    1
  5866 ;; This function calls:
  5867 ;;		Nothing
  5868 ;; This function is called by:
  5869 ;;		_Servos_90_30_Rapido
  5870 ;;		_Servos_90_90_Rapido
  5871 ;;		_Servos_90_30_Lento
  5872 ;;		_Servos_90_60_Lento
  5873 ;;		_Servos_90_90_Lento
  5874 ;;		_Servo_Posicion_Inicial
  5875 ;;		_Servos_90_60_Rapido
  5876 ;; This function uses a non-reentrant model
  5877 ;;
  5878                           
  5879                           	psect	text61
  5880  0019BC                     __ptext61:
  5881                           	opt callstack 0
  5882  0019BC                     _Servo_Uno_0:
  5883                           	opt callstack 29
  5884  0019BC                     
  5885                           ;Servo.c: 18:              for(int i=0;i<16;i++){
  5886  0019BC  0E00               	movlw	0
  5887  0019BE  6E03               	movwf	(Servo_Uno_0@i+1)^0,c
  5888  0019C0  0E00               	movlw	0
  5889  0019C2  6E02               	movwf	Servo_Uno_0@i^0,c
  5890  0019C4                     l164:
  5891                           
  5892                           ;Servo.c: 19:             LATBbits.LATB0=0;
  5893  0019C4  908A               	bcf	138,0,c	;volatile
  5894                           
  5895                           ;Servo.c: 20:             LATBbits.LATB0=1;
  5896  0019C6  808A               	bsf	138,0,c	;volatile
  5897  0019C8                     
  5898                           ;Servo.c: 21:             _delay((unsigned long)((0.500)*(8000000/4000.0)));
  5899  0019C8  0EC8               	movlw	200
  5900  0019CA                     u1757:
  5901  0019CA  D000               	nop2	
  5902  0019CC  2EE8               	decfsz	wreg,f,c
  5903  0019CE  D7FD               	bra	u1757
  5904  0019D0                     
  5905                           ;Servo.c: 22:             LATBbits.LATB0=0;
  5906  0019D0  908A               	bcf	138,0,c	;volatile
  5907                           
  5908                           ;Servo.c: 23:             _delay((unsigned long)((20-0.500)*(8000000/4000.0)));}
  5909  0019D2  0E33               	movlw	51
  5910  0019D4  6E01               	movwf	??_Servo_Uno_0^0,c
  5911  0019D6  0EA5               	movlw	165
  5912  0019D8                     u1767:
  5913  0019D8  2EE8               	decfsz	wreg,f,c
  5914  0019DA  D7FE               	bra	u1767
  5915  0019DC  2E01               	decfsz	??_Servo_Uno_0^0,f,c
  5916  0019DE  D7FC               	bra	u1767
  5917  0019E0  F000               	nop	
  5918  0019E2  4A02               	infsnz	Servo_Uno_0@i^0,f,c
  5919  0019E4  2A03               	incf	(Servo_Uno_0@i+1)^0,f,c
  5920  0019E6  BE03               	btfsc	(Servo_Uno_0@i+1)^0,7,c
  5921  0019E8  EFFF  F00C         	goto	u51
  5922  0019EC  5003               	movf	(Servo_Uno_0@i+1)^0,w,c
  5923  0019EE  E109               	bnz	u50
  5924  0019F0  0E10               	movlw	16
  5925  0019F2  5C02               	subwf	Servo_Uno_0@i^0,w,c
  5926  0019F4  A0D8               	btfss	status,0,c
  5927  0019F6  EFFF  F00C         	goto	u51
  5928  0019FA  EF01  F00D         	goto	u50
  5929  0019FE                     u51:
  5930  0019FE  EFE2  F00C         	goto	l164
  5931  001A02                     u50:
  5932  001A02  0012               	return		;funcret
  5933  001A04                     __end_of_Servo_Uno_0:
  5934                           	opt callstack 0
  5935                           
  5936 ;; *************** function _Servo_Tres_75 *****************
  5937 ;; Defined at:
  5938 ;;		line 300 in file "Servo.c"
  5939 ;; Parameters:    Size  Location     Type
  5940 ;;		None
  5941 ;; Auto vars:     Size  Location     Type
  5942 ;;  i               2    1[COMRAM] int 
  5943 ;; Return value:  Size  Location     Type
  5944 ;;                  1    wreg      void 
  5945 ;; Registers used:
  5946 ;;		wreg, status,2, status,0
  5947 ;; Tracked objects:
  5948 ;;		On entry : 0/0
  5949 ;;		On exit  : 0/0
  5950 ;;		Unchanged: 0/0
  5951 ;; Data sizes:     COMRAM   BANK0   BANK1   BANK2   BANK3   BANK4   BANK5   BANK6   BANK7
  5952 ;;      Params:         0       0       0       0       0       0       0       0       0
  5953 ;;      Locals:         2       0       0       0       0       0       0       0       0
  5954 ;;      Temps:          1       0       0       0       0       0       0       0       0
  5955 ;;      Totals:         3       0       0       0       0       0       0       0       0
  5956 ;;Total ram usage:        3 bytes
  5957 ;; Hardware stack levels used:    1
  5958 ;; This function calls:
  5959 ;;		Nothing
  5960 ;; This function is called by:
  5961 ;;		_Servos_150_30
  5962 ;;		_Servos_150_60
  5963 ;;		_Servos_150_90
  5964 ;;		_Servos_150_120
  5965 ;;		_Servos_150_150
  5966 ;;		_Servo_Posicion_Inicial
  5967 ;; This function uses a non-reentrant model
  5968 ;;
  5969                           
  5970                           	psect	text62
  5971  000D76                     __ptext62:
  5972                           	opt callstack 0
  5973  000D76                     _Servo_Tres_75:
  5974                           	opt callstack 29
  5975  000D76                     
  5976                           ;Servo.c: 301:              for(int i=0;i<16;i++){
  5977  000D76  0E00               	movlw	0
  5978  000D78  6E03               	movwf	(Servo_Tres_75@i+1)^0,c
  5979  000D7A  0E00               	movlw	0
  5980  000D7C  6E02               	movwf	Servo_Tres_75@i^0,c
  5981  000D7E                     l319:
  5982                           
  5983                           ;Servo.c: 302:             LATBbits.LATB2=0;
  5984  000D7E  948A               	bcf	138,2,c	;volatile
  5985                           
  5986                           ;Servo.c: 303:             LATBbits.LATB2=1;
  5987  000D80  848A               	bsf	138,2,c	;volatile
  5988  000D82                     
  5989                           ;Servo.c: 304:             _delay((unsigned long)((1.300)*(8000000/4000.0)));
  5990  000D82  0E04               	movlw	4
  5991  000D84  6E01               	movwf	??_Servo_Tres_75^0,c
  5992  000D86  0E5F               	movlw	95
  5993  000D88                     u1777:
  5994  000D88  2EE8               	decfsz	wreg,f,c
  5995  000D8A  D7FE               	bra	u1777
  5996  000D8C  2E01               	decfsz	??_Servo_Tres_75^0,f,c
  5997  000D8E  D7FC               	bra	u1777
  5998  000D90  F000               	nop	
  5999  000D92                     
  6000                           ;Servo.c: 305:             LATBbits.LATB2=0;
  6001  000D92  948A               	bcf	138,2,c	;volatile
  6002                           
  6003                           ;Servo.c: 306:             _delay((unsigned long)((20-1.300)*(8000000/4000.0)));}
  6004  000D94  0E31               	movlw	49
  6005  000D96  6E01               	movwf	??_Servo_Tres_75^0,c
  6006  000D98  0E91               	movlw	145
  6007  000D9A                     u1787:
  6008  000D9A  2EE8               	decfsz	wreg,f,c
  6009  000D9C  D7FE               	bra	u1787
  6010  000D9E  2E01               	decfsz	??_Servo_Tres_75^0,f,c
  6011  000DA0  D7FC               	bra	u1787
  6012  000DA2  F000               	nop	
  6013  000DA4  4A02               	infsnz	Servo_Tres_75@i^0,f,c
  6014  000DA6  2A03               	incf	(Servo_Tres_75@i+1)^0,f,c
  6015  000DA8  BE03               	btfsc	(Servo_Tres_75@i+1)^0,7,c
  6016  000DAA  EFE0  F006         	goto	u11
  6017  000DAE  5003               	movf	(Servo_Tres_75@i+1)^0,w,c
  6018  000DB0  E109               	bnz	u10
  6019  000DB2  0E10               	movlw	16
  6020  000DB4  5C02               	subwf	Servo_Tres_75@i^0,w,c
  6021  000DB6  A0D8               	btfss	status,0,c
  6022  000DB8  EFE0  F006         	goto	u11
  6023  000DBC  EFE2  F006         	goto	u10
  6024  000DC0                     u11:
  6025  000DC0  EFBF  F006         	goto	l319
  6026  000DC4                     u10:
  6027  000DC4  0012               	return		;funcret
  6028  000DC6                     __end_of_Servo_Tres_75:
  6029                           	opt callstack 0
  6030                           
  6031 ;; *************** function _Servo_Seis_0 *****************
  6032 ;; Defined at:
  6033 ;;		line 612 in file "Servo.c"
  6034 ;; Parameters:    Size  Location     Type
  6035 ;;		None
  6036 ;; Auto vars:     Size  Location     Type
  6037 ;;  i               2    1[COMRAM] int 
  6038 ;; Return value:  Size  Location     Type
  6039 ;;                  1    wreg      void 
  6040 ;; Registers used:
  6041 ;;		wreg, status,2, status,0
  6042 ;; Tracked objects:
  6043 ;;		On entry : 0/0
  6044 ;;		On exit  : 0/0
  6045 ;;		Unchanged: 0/0
  6046 ;; Data sizes:     COMRAM   BANK0   BANK1   BANK2   BANK3   BANK4   BANK5   BANK6   BANK7
  6047 ;;      Params:         0       0       0       0       0       0       0       0       0
  6048 ;;      Locals:         2       0       0       0       0       0       0       0       0
  6049 ;;      Temps:          1       0       0       0       0       0       0       0       0
  6050 ;;      Totals:         3       0       0       0       0       0       0       0       0
  6051 ;;Total ram usage:        3 bytes
  6052 ;; Hardware stack levels used:    1
  6053 ;; This function calls:
  6054 ;;		Nothing
  6055 ;; This function is called by:
  6056 ;;		_Servos_60_30_Rapido
  6057 ;;		_Servos_60_60_Rapido
  6058 ;;		_Servos_60_30_Lento
  6059 ;;		_Servos_60_60_Lento
  6060 ;;		_Servo_Posicion_Inicial
  6061 ;; This function uses a non-reentrant model
  6062 ;;
  6063                           
  6064                           	psect	text63
  6065  001A04                     __ptext63:
  6066                           	opt callstack 0
  6067  001A04                     _Servo_Seis_0:
  6068                           	opt callstack 29
  6069  001A04                     
  6070                           ;Servo.c: 613:              for(int i=0;i<16;i++){
  6071  001A04  0E00               	movlw	0
  6072  001A06  6E03               	movwf	(Servo_Seis_0@i+1)^0,c
  6073  001A08  0E00               	movlw	0
  6074  001A0A  6E02               	movwf	Servo_Seis_0@i^0,c
  6075  001A0C                     l489:
  6076                           
  6077                           ;Servo.c: 614:             LATBbits.LATB5=0;
  6078  001A0C  9A8A               	bcf	138,5,c	;volatile
  6079                           
  6080                           ;Servo.c: 615:             LATBbits.LATB5=1;
  6081  001A0E  8A8A               	bsf	138,5,c	;volatile
  6082  001A10                     
  6083                           ;Servo.c: 616:             _delay((unsigned long)((0.500)*(8000000/4000.0)));
  6084  001A10  0EC8               	movlw	200
  6085  001A12                     u1797:
  6086  001A12  D000               	nop2	
  6087  001A14  2EE8               	decfsz	wreg,f,c
  6088  001A16  D7FD               	bra	u1797
  6089  001A18                     
  6090                           ;Servo.c: 617:             LATBbits.LATB5=0;
  6091  001A18  9A8A               	bcf	138,5,c	;volatile
  6092                           
  6093                           ;Servo.c: 618:             _delay((unsigned long)((20-0.500)*(8000000/4000.0)));}
  6094  001A1A  0E33               	movlw	51
  6095  001A1C  6E01               	movwf	??_Servo_Seis_0^0,c
  6096  001A1E  0EA5               	movlw	165
  6097  001A20                     u1807:
  6098  001A20  2EE8               	decfsz	wreg,f,c
  6099  001A22  D7FE               	bra	u1807
  6100  001A24  2E01               	decfsz	??_Servo_Seis_0^0,f,c
  6101  001A26  D7FC               	bra	u1807
  6102  001A28  F000               	nop	
  6103  001A2A  4A02               	infsnz	Servo_Seis_0@i^0,f,c
  6104  001A2C  2A03               	incf	(Servo_Seis_0@i+1)^0,f,c
  6105  001A2E  BE03               	btfsc	(Servo_Seis_0@i+1)^0,7,c
  6106  001A30  EF23  F00D         	goto	u41
  6107  001A34  5003               	movf	(Servo_Seis_0@i+1)^0,w,c
  6108  001A36  E109               	bnz	u40
  6109  001A38  0E10               	movlw	16
  6110  001A3A  5C02               	subwf	Servo_Seis_0@i^0,w,c
  6111  001A3C  A0D8               	btfss	status,0,c
  6112  001A3E  EF23  F00D         	goto	u41
  6113  001A42  EF25  F00D         	goto	u40
  6114  001A46                     u41:
  6115  001A46  EF06  F00D         	goto	l489
  6116  001A4A                     u40:
  6117  001A4A  0012               	return		;funcret
  6118  001A4C                     __end_of_Servo_Seis_0:
  6119                           	opt callstack 0
  6120                           
  6121 ;; *************** function _Servo_Dos_0 *****************
  6122 ;; Defined at:
  6123 ;;		line 136 in file "Servo.c"
  6124 ;; Parameters:    Size  Location     Type
  6125 ;;		None
  6126 ;; Auto vars:     Size  Location     Type
  6127 ;;  i               2    1[COMRAM] int 
  6128 ;; Return value:  Size  Location     Type
  6129 ;;                  1    wreg      void 
  6130 ;; Registers used:
  6131 ;;		wreg, status,2, status,0
  6132 ;; Tracked objects:
  6133 ;;		On entry : 0/0
  6134 ;;		On exit  : 0/0
  6135 ;;		Unchanged: 0/0
  6136 ;; Data sizes:     COMRAM   BANK0   BANK1   BANK2   BANK3   BANK4   BANK5   BANK6   BANK7
  6137 ;;      Params:         0       0       0       0       0       0       0       0       0
  6138 ;;      Locals:         2       0       0       0       0       0       0       0       0
  6139 ;;      Temps:          1       0       0       0       0       0       0       0       0
  6140 ;;      Totals:         3       0       0       0       0       0       0       0       0
  6141 ;;Total ram usage:        3 bytes
  6142 ;; Hardware stack levels used:    1
  6143 ;; This function calls:
  6144 ;;		Nothing
  6145 ;; This function is called by:
  6146 ;;		_Servos_90_30_Rapido
  6147 ;;		_Servos_90_90_Rapido
  6148 ;;		_Servos_90_30_Lento
  6149 ;;		_Servos_90_60_Lento
  6150 ;;		_Servos_90_90_Lento
  6151 ;;		_Servo_Posicion_Inicial
  6152 ;;		_Servos_90_60_Rapido
  6153 ;; This function uses a non-reentrant model
  6154 ;;
  6155                           
  6156                           	psect	text64
  6157  001A4C                     __ptext64:
  6158                           	opt callstack 0
  6159  001A4C                     _Servo_Dos_0:
  6160                           	opt callstack 29
  6161  001A4C                     
  6162                           ;Servo.c: 137:              for(int i=0;i<16;i++){
  6163  001A4C  0E00               	movlw	0
  6164  001A4E  6E03               	movwf	(Servo_Dos_0@i+1)^0,c
  6165  001A50  0E00               	movlw	0
  6166  001A52  6E02               	movwf	Servo_Dos_0@i^0,c
  6167  001A54                     l229:
  6168                           
  6169                           ;Servo.c: 138:             LATBbits.LATB1=0;
  6170  001A54  928A               	bcf	138,1,c	;volatile
  6171                           
  6172                           ;Servo.c: 139:             LATBbits.LATB1=1;
  6173  001A56  828A               	bsf	138,1,c	;volatile
  6174  001A58                     
  6175                           ;Servo.c: 140:             _delay((unsigned long)((0.500)*(8000000/4000.0)));
  6176  001A58  0EC8               	movlw	200
  6177  001A5A                     u1817:
  6178  001A5A  D000               	nop2	
  6179  001A5C  2EE8               	decfsz	wreg,f,c
  6180  001A5E  D7FD               	bra	u1817
  6181  001A60                     
  6182                           ;Servo.c: 141:             LATBbits.LATB1=0;
  6183  001A60  928A               	bcf	138,1,c	;volatile
  6184                           
  6185                           ;Servo.c: 142:             _delay((unsigned long)((20-0.500)*(8000000/4000.0)));}
  6186  001A62  0E33               	movlw	51
  6187  001A64  6E01               	movwf	??_Servo_Dos_0^0,c
  6188  001A66  0EA5               	movlw	165
  6189  001A68                     u1827:
  6190  001A68  2EE8               	decfsz	wreg,f,c
  6191  001A6A  D7FE               	bra	u1827
  6192  001A6C  2E01               	decfsz	??_Servo_Dos_0^0,f,c
  6193  001A6E  D7FC               	bra	u1827
  6194  001A70  F000               	nop	
  6195  001A72  4A02               	infsnz	Servo_Dos_0@i^0,f,c
  6196  001A74  2A03               	incf	(Servo_Dos_0@i+1)^0,f,c
  6197  001A76  BE03               	btfsc	(Servo_Dos_0@i+1)^0,7,c
  6198  001A78  EF47  F00D         	goto	u61
  6199  001A7C  5003               	movf	(Servo_Dos_0@i+1)^0,w,c
  6200  001A7E  E109               	bnz	u60
  6201  001A80  0E10               	movlw	16
  6202  001A82  5C02               	subwf	Servo_Dos_0@i^0,w,c
  6203  001A84  A0D8               	btfss	status,0,c
  6204  001A86  EF47  F00D         	goto	u61
  6205  001A8A  EF49  F00D         	goto	u60
  6206  001A8E                     u61:
  6207  001A8E  EF2A  F00D         	goto	l229
  6208  001A92                     u60:
  6209  001A92  0012               	return		;funcret
  6210  001A94                     __end_of_Servo_Dos_0:
  6211                           	opt callstack 0
  6212                           
  6213 ;; *************** function _Servo_Cuatro_75 *****************
  6214 ;; Defined at:
  6215 ;;		line 419 in file "Servo.c"
  6216 ;; Parameters:    Size  Location     Type
  6217 ;;		None
  6218 ;; Auto vars:     Size  Location     Type
  6219 ;;  i               2    1[COMRAM] int 
  6220 ;; Return value:  Size  Location     Type
  6221 ;;                  1    wreg      void 
  6222 ;; Registers used:
  6223 ;;		wreg, status,2, status,0
  6224 ;; Tracked objects:
  6225 ;;		On entry : 0/0
  6226 ;;		On exit  : 0/0
  6227 ;;		Unchanged: 0/0
  6228 ;; Data sizes:     COMRAM   BANK0   BANK1   BANK2   BANK3   BANK4   BANK5   BANK6   BANK7
  6229 ;;      Params:         0       0       0       0       0       0       0       0       0
  6230 ;;      Locals:         2       0       0       0       0       0       0       0       0
  6231 ;;      Temps:          1       0       0       0       0       0       0       0       0
  6232 ;;      Totals:         3       0       0       0       0       0       0       0       0
  6233 ;;Total ram usage:        3 bytes
  6234 ;; Hardware stack levels used:    1
  6235 ;; This function calls:
  6236 ;;		Nothing
  6237 ;; This function is called by:
  6238 ;;		_Servos_150_30
  6239 ;;		_Servos_150_60
  6240 ;;		_Servos_150_90
  6241 ;;		_Servos_150_120
  6242 ;;		_Servos_150_150
  6243 ;;		_Servo_Posicion_Inicial
  6244 ;; This function uses a non-reentrant model
  6245 ;;
  6246                           
  6247                           	psect	text65
  6248  000DC6                     __ptext65:
  6249                           	opt callstack 0
  6250  000DC6                     _Servo_Cuatro_75:
  6251                           	opt callstack 29
  6252  000DC6                     
  6253                           ;Servo.c: 420:              for(int i=0;i<16;i++){
  6254  000DC6  0E00               	movlw	0
  6255  000DC8  6E03               	movwf	(Servo_Cuatro_75@i+1)^0,c
  6256  000DCA  0E00               	movlw	0
  6257  000DCC  6E02               	movwf	Servo_Cuatro_75@i^0,c
  6258  000DCE                     l384:
  6259                           
  6260                           ;Servo.c: 421:             LATBbits.LATB3=0;
  6261  000DCE  968A               	bcf	138,3,c	;volatile
  6262                           
  6263                           ;Servo.c: 422:             LATBbits.LATB3=1;
  6264  000DD0  868A               	bsf	138,3,c	;volatile
  6265  000DD2                     
  6266                           ;Servo.c: 423:             _delay((unsigned long)((1.300)*(8000000/4000.0)));
  6267  000DD2  0E04               	movlw	4
  6268  000DD4  6E01               	movwf	??_Servo_Cuatro_75^0,c
  6269  000DD6  0E5F               	movlw	95
  6270  000DD8                     u1837:
  6271  000DD8  2EE8               	decfsz	wreg,f,c
  6272  000DDA  D7FE               	bra	u1837
  6273  000DDC  2E01               	decfsz	??_Servo_Cuatro_75^0,f,c
  6274  000DDE  D7FC               	bra	u1837
  6275  000DE0  F000               	nop	
  6276  000DE2                     
  6277                           ;Servo.c: 424:             LATBbits.LATB3=0;
  6278  000DE2  968A               	bcf	138,3,c	;volatile
  6279                           
  6280                           ;Servo.c: 425:             _delay((unsigned long)((20-1.300)*(8000000/4000.0)));}
  6281  000DE4  0E31               	movlw	49
  6282  000DE6  6E01               	movwf	??_Servo_Cuatro_75^0,c
  6283  000DE8  0E91               	movlw	145
  6284  000DEA                     u1847:
  6285  000DEA  2EE8               	decfsz	wreg,f,c
  6286  000DEC  D7FE               	bra	u1847
  6287  000DEE  2E01               	decfsz	??_Servo_Cuatro_75^0,f,c
  6288  000DF0  D7FC               	bra	u1847
  6289  000DF2  F000               	nop	
  6290  000DF4  4A02               	infsnz	Servo_Cuatro_75@i^0,f,c
  6291  000DF6  2A03               	incf	(Servo_Cuatro_75@i+1)^0,f,c
  6292  000DF8  BE03               	btfsc	(Servo_Cuatro_75@i+1)^0,7,c
  6293  000DFA  EF08  F007         	goto	u21
  6294  000DFE  5003               	movf	(Servo_Cuatro_75@i+1)^0,w,c
  6295  000E00  E109               	bnz	u20
  6296  000E02  0E10               	movlw	16
  6297  000E04  5C02               	subwf	Servo_Cuatro_75@i^0,w,c
  6298  000E06  A0D8               	btfss	status,0,c
  6299  000E08  EF08  F007         	goto	u21
  6300  000E0C  EF0A  F007         	goto	u20
  6301  000E10                     u21:
  6302  000E10  EFE7  F006         	goto	l384
  6303  000E14                     u20:
  6304  000E14  0012               	return		;funcret
  6305  000E16                     __end_of_Servo_Cuatro_75:
  6306                           	opt callstack 0
  6307                           
  6308 ;; *************** function _Servo_Cinco_0 *****************
  6309 ;; Defined at:
  6310 ;;		line 493 in file "Servo.c"
  6311 ;; Parameters:    Size  Location     Type
  6312 ;;		None
  6313 ;; Auto vars:     Size  Location     Type
  6314 ;;  i               2    1[COMRAM] int 
  6315 ;; Return value:  Size  Location     Type
  6316 ;;                  1    wreg      void 
  6317 ;; Registers used:
  6318 ;;		wreg, status,2, status,0
  6319 ;; Tracked objects:
  6320 ;;		On entry : 0/0
  6321 ;;		On exit  : 0/0
  6322 ;;		Unchanged: 0/0
  6323 ;; Data sizes:     COMRAM   BANK0   BANK1   BANK2   BANK3   BANK4   BANK5   BANK6   BANK7
  6324 ;;      Params:         0       0       0       0       0       0       0       0       0
  6325 ;;      Locals:         2       0       0       0       0       0       0       0       0
  6326 ;;      Temps:          1       0       0       0       0       0       0       0       0
  6327 ;;      Totals:         3       0       0       0       0       0       0       0       0
  6328 ;;Total ram usage:        3 bytes
  6329 ;; Hardware stack levels used:    1
  6330 ;; This function calls:
  6331 ;;		Nothing
  6332 ;; This function is called by:
  6333 ;;		_Servos_60_30_Rapido
  6334 ;;		_Servos_60_60_Rapido
  6335 ;;		_Servos_60_30_Lento
  6336 ;;		_Servos_60_60_Lento
  6337 ;;		_Servo_Posicion_Inicial
  6338 ;; This function uses a non-reentrant model
  6339 ;;
  6340                           
  6341                           	psect	text66
  6342  001A94                     __ptext66:
  6343                           	opt callstack 0
  6344  001A94                     _Servo_Cinco_0:
  6345                           	opt callstack 29
  6346  001A94                     
  6347                           ;Servo.c: 494:              for(int i=0;i<16;i++){
  6348  001A94  0E00               	movlw	0
  6349  001A96  6E03               	movwf	(Servo_Cinco_0@i+1)^0,c
  6350  001A98  0E00               	movlw	0
  6351  001A9A  6E02               	movwf	Servo_Cinco_0@i^0,c
  6352  001A9C                     l424:
  6353                           
  6354                           ;Servo.c: 495:             LATBbits.LATB4=0;
  6355  001A9C  988A               	bcf	138,4,c	;volatile
  6356                           
  6357                           ;Servo.c: 496:             LATBbits.LATB4=1;
  6358  001A9E  888A               	bsf	138,4,c	;volatile
  6359  001AA0                     
  6360                           ;Servo.c: 497:             _delay((unsigned long)((0.500)*(8000000/4000.0)));
  6361  001AA0  0EC8               	movlw	200
  6362  001AA2                     u1857:
  6363  001AA2  D000               	nop2	
  6364  001AA4  2EE8               	decfsz	wreg,f,c
  6365  001AA6  D7FD               	bra	u1857
  6366  001AA8                     
  6367                           ;Servo.c: 498:             LATBbits.LATB4=0;
  6368  001AA8  988A               	bcf	138,4,c	;volatile
  6369                           
  6370                           ;Servo.c: 499:             _delay((unsigned long)((20-0.500)*(8000000/4000.0)));}
  6371  001AAA  0E33               	movlw	51
  6372  001AAC  6E01               	movwf	??_Servo_Cinco_0^0,c
  6373  001AAE  0EA5               	movlw	165
  6374  001AB0                     u1867:
  6375  001AB0  2EE8               	decfsz	wreg,f,c
  6376  001AB2  D7FE               	bra	u1867
  6377  001AB4  2E01               	decfsz	??_Servo_Cinco_0^0,f,c
  6378  001AB6  D7FC               	bra	u1867
  6379  001AB8  F000               	nop	
  6380  001ABA  4A02               	infsnz	Servo_Cinco_0@i^0,f,c
  6381  001ABC  2A03               	incf	(Servo_Cinco_0@i+1)^0,f,c
  6382  001ABE  BE03               	btfsc	(Servo_Cinco_0@i+1)^0,7,c
  6383  001AC0  EF6B  F00D         	goto	u31
  6384  001AC4  5003               	movf	(Servo_Cinco_0@i+1)^0,w,c
  6385  001AC6  E109               	bnz	u30
  6386  001AC8  0E10               	movlw	16
  6387  001ACA  5C02               	subwf	Servo_Cinco_0@i^0,w,c
  6388  001ACC  A0D8               	btfss	status,0,c
  6389  001ACE  EF6B  F00D         	goto	u31
  6390  001AD2  EF6D  F00D         	goto	u30
  6391  001AD6                     u31:
  6392  001AD6  EF4E  F00D         	goto	l424
  6393  001ADA                     u30:
  6394  001ADA  0012               	return		;funcret
  6395  001ADC                     __end_of_Servo_Cinco_0:
  6396                           	opt callstack 0
  6397                           
  6398 ;; *************** function _Confi_Servo *****************
  6399 ;; Defined at:
  6400 ;;		line 7 in file "Servo.c"
  6401 ;; Parameters:    Size  Location     Type
  6402 ;;		None
  6403 ;; Auto vars:     Size  Location     Type
  6404 ;;		None
  6405 ;; Return value:  Size  Location     Type
  6406 ;;                  1    wreg      void 
  6407 ;; Registers used:
  6408 ;;		None
  6409 ;; Tracked objects:
  6410 ;;		On entry : 0/0
  6411 ;;		On exit  : 0/0
  6412 ;;		Unchanged: 0/0
  6413 ;; Data sizes:     COMRAM   BANK0   BANK1   BANK2   BANK3   BANK4   BANK5   BANK6   BANK7
  6414 ;;      Params:         0       0       0       0       0       0       0       0       0
  6415 ;;      Locals:         0       0       0       0       0       0       0       0       0
  6416 ;;      Temps:          0       0       0       0       0       0       0       0       0
  6417 ;;      Totals:         0       0       0       0       0       0       0       0       0
  6418 ;;Total ram usage:        0 bytes
  6419 ;; Hardware stack levels used:    1
  6420 ;; This function calls:
  6421 ;;		Nothing
  6422 ;; This function is called by:
  6423 ;;		_Inicializacion
  6424 ;; This function uses a non-reentrant model
  6425 ;;
  6426                           
  6427                           	psect	text67
  6428  001C68                     __ptext67:
  6429                           	opt callstack 0
  6430  001C68                     _Confi_Servo:
  6431                           	opt callstack 29
  6432  001C68                     
  6433                           ;Servo.c: 8:     TRISBbits.RB0=0;
  6434  001C68  9093               	bcf	147,0,c	;volatile
  6435                           
  6436                           ;Servo.c: 9:     TRISBbits.RB1=0;
  6437  001C6A  9293               	bcf	147,1,c	;volatile
  6438                           
  6439                           ;Servo.c: 10:     TRISBbits.RB2=0;
  6440  001C6C  9493               	bcf	147,2,c	;volatile
  6441                           
  6442                           ;Servo.c: 11:     TRISBbits.RB3=0;
  6443  001C6E  9693               	bcf	147,3,c	;volatile
  6444                           
  6445                           ;Servo.c: 12:     TRISBbits.RB4=0;
  6446  001C70  9893               	bcf	147,4,c	;volatile
  6447                           
  6448                           ;Servo.c: 13:     TRISBbits.RB5=0;
  6449  001C72  9A93               	bcf	147,5,c	;volatile
  6450  001C74  0012               	return		;funcret
  6451  001C76                     __end_of_Confi_Servo:
  6452                           	opt callstack 0
  6453                           
  6454 ;; *************** function _Confi_Blue *****************
  6455 ;; Defined at:
  6456 ;;		line 6 in file "Usart.c"
  6457 ;; Parameters:    Size  Location     Type
  6458 ;;		None
  6459 ;; Auto vars:     Size  Location     Type
  6460 ;;		None
  6461 ;; Return value:  Size  Location     Type
  6462 ;;                  1    wreg      void 
  6463 ;; Registers used:
  6464 ;;		wreg, status,2
  6465 ;; Tracked objects:
  6466 ;;		On entry : 0/0
  6467 ;;		On exit  : 0/0
  6468 ;;		Unchanged: 0/0
  6469 ;; Data sizes:     COMRAM   BANK0   BANK1   BANK2   BANK3   BANK4   BANK5   BANK6   BANK7
  6470 ;;      Params:         0       0       0       0       0       0       0       0       0
  6471 ;;      Locals:         0       0       0       0       0       0       0       0       0
  6472 ;;      Temps:          0       0       0       0       0       0       0       0       0
  6473 ;;      Totals:         0       0       0       0       0       0       0       0       0
  6474 ;;Total ram usage:        0 bytes
  6475 ;; Hardware stack levels used:    1
  6476 ;; This function calls:
  6477 ;;		Nothing
  6478 ;; This function is called by:
  6479 ;;		_Inicializacion
  6480 ;; This function uses a non-reentrant model
  6481 ;;
  6482                           
  6483                           	psect	text68
  6484  001C12                     __ptext68:
  6485                           	opt callstack 0
  6486  001C12                     _Confi_Blue:
  6487                           	opt callstack 29
  6488  001C12                     
  6489                           ;Usart.c: 7:     TRISCbits.RC7=1;
  6490  001C12  8E94               	bsf	148,7,c	;volatile
  6491                           
  6492                           ;Usart.c: 8:     TRISCbits.RC6=0;
  6493  001C14  9C94               	bcf	148,6,c	;volatile
  6494  001C16                     
  6495                           ;Usart.c: 9:     SPBRG=12;
  6496  001C16  0E0C               	movlw	12
  6497  001C18  6EAF               	movwf	175,c	;volatile
  6498  001C1A                     
  6499                           ;Usart.c: 11:     RCSTAbits.SPEN = 1;
  6500  001C1A  8EAB               	bsf	171,7,c	;volatile
  6501  001C1C                     
  6502                           ;Usart.c: 12:     TXSTAbits.SYNC = 0;
  6503  001C1C  98AC               	bcf	172,4,c	;volatile
  6504  001C1E                     
  6505                           ;Usart.c: 13:     BAUDCONbits.BRG16=0;
  6506  001C1E  96B8               	bcf	184,3,c	;volatile
  6507  001C20                     
  6508                           ;Usart.c: 14:     TXSTAbits.BRGH = 0;
  6509  001C20  94AC               	bcf	172,2,c	;volatile
  6510  001C22                     
  6511                           ;Usart.c: 21:         TXSTAbits.TX9 = 0;
  6512  001C22  9CAC               	bcf	172,6,c	;volatile
  6513  001C24                     
  6514                           ;Usart.c: 22:         TXSTAbits.TXEN = 1;
  6515  001C24  8AAC               	bsf	172,5,c	;volatile
  6516  001C26                     
  6517                           ;Usart.c: 24:         RCSTAbits.RC9 = 0;
  6518  001C26  9CAB               	bcf	171,6,c	;volatile
  6519  001C28                     
  6520                           ;Usart.c: 25:         RCSTAbits.CREN = 1;
  6521  001C28  88AB               	bsf	171,4,c	;volatile
  6522  001C2A  0012               	return		;funcret
  6523  001C2C                     __end_of_Confi_Blue:
  6524                           	opt callstack 0
  6525                           
  6526                           	psect	rparam
  6527  0000                     tosu	equ	0xFFF
  6528                           tosh	equ	0xFFE
  6529                           tosl	equ	0xFFD
  6530                           stkptr	equ	0xFFC
  6531                           pclatu	equ	0xFFB
  6532                           pclath	equ	0xFFA
  6533                           pcl	equ	0xFF9
  6534                           tblptru	equ	0xFF8
  6535                           tblptrh	equ	0xFF7
  6536                           tblptrl	equ	0xFF6
  6537                           tablat	equ	0xFF5
  6538                           prodh	equ	0xFF4
  6539                           prodl	equ	0xFF3
  6540                           indf0	equ	0xFEF
  6541                           postinc0	equ	0xFEE
  6542                           postdec0	equ	0xFED
  6543                           preinc0	equ	0xFEC
  6544                           plusw0	equ	0xFEB
  6545                           fsr0h	equ	0xFEA
  6546                           fsr0l	equ	0xFE9
  6547                           wreg	equ	0xFE8
  6548                           indf1	equ	0xFE7
  6549                           postinc1	equ	0xFE6
  6550                           postdec1	equ	0xFE5
  6551                           preinc1	equ	0xFE4
  6552                           plusw1	equ	0xFE3
  6553                           fsr1h	equ	0xFE2
  6554                           fsr1l	equ	0xFE1
  6555                           bsr	equ	0xFE0
  6556                           indf2	equ	0xFDF
  6557                           postinc2	equ	0xFDE
  6558                           postdec2	equ	0xFDD
  6559                           preinc2	equ	0xFDC
  6560                           plusw2	equ	0xFDB
  6561                           fsr2h	equ	0xFDA
  6562                           fsr2l	equ	0xFD9
  6563                           status	equ	0xFD8


Data Sizes:
    Strings     30
    Constant    0
    Data        0
    BSS         2
    Persistent  0
    Stack       0

Auto Spaces:
    Space          Size  Autos    Used
    COMRAM           95      5       7
    BANK0           160      0       0
    BANK1           256      0       0
    BANK2           256      0       0
    BANK3           256      0       0
    BANK4           256      0       0
    BANK5           256      0       0
    BANK6           256      0       0
    BANK7           256      0       0

Pointer List with Targets:

    UART0_Tx_String@str	PTR unsigned char  size(2) Largest target is 25
		 -> UART0_Tx_Integer@signo_y_digitos(COMRAM[12]), STR_2(CODE[25]), STR_1(CODE[5]), 


Critical Paths under _main in COMRAM

    _main->_UART0_Tx_String
    _UART0_Tx_String->_Tx_str
    _Servos_90_90_Rapido->_Servo_Dos_0
    _Servos_90_90_Rapido->_Servo_Dos_30
    _Servos_90_90_Rapido->_Servo_Dos_60
    _Servos_90_90_Rapido->_Servo_Dos_90
    _Servos_90_90_Rapido->_Servo_Uno_0
    _Servos_90_90_Rapido->_Servo_Uno_30
    _Servos_90_90_Rapido->_Servo_Uno_60
    _Servos_90_90_Rapido->_Servo_Uno_90
    _Servos_90_90_Lento->_Servo_Dos_0
    _Servos_90_90_Lento->_Servo_Dos_15
    _Servos_90_90_Lento->_Servo_Dos_30
    _Servos_90_90_Lento->_Servo_Dos_45
    _Servos_90_90_Lento->_Servo_Dos_60
    _Servos_90_90_Lento->_Servo_Dos_75
    _Servos_90_90_Lento->_Servo_Dos_90
    _Servos_90_90_Lento->_Servo_Uno_0
    _Servos_90_90_Lento->_Servo_Uno_15
    _Servos_90_90_Lento->_Servo_Uno_30
    _Servos_90_90_Lento->_Servo_Uno_45
    _Servos_90_90_Lento->_Servo_Uno_60
    _Servos_90_90_Lento->_Servo_Uno_75
    _Servos_90_90_Lento->_Servo_Uno_90
    _Servos_90_60_Lento->_Servo_Dos_0
    _Servos_90_60_Lento->_Servo_Dos_15
    _Servos_90_60_Lento->_Servo_Dos_30
    _Servos_90_60_Lento->_Servo_Dos_45
    _Servos_90_60_Lento->_Servo_Dos_60
    _Servos_90_60_Lento->_Servo_Uno_0
    _Servos_90_60_Lento->_Servo_Uno_15
    _Servos_90_60_Lento->_Servo_Uno_30
    _Servos_90_60_Lento->_Servo_Uno_45
    _Servos_90_60_Lento->_Servo_Uno_60
    _Servos_90_30_Rapido->_Servo_Dos_0
    _Servos_90_30_Rapido->_Servo_Dos_30
    _Servos_90_30_Rapido->_Servo_Uno_0
    _Servos_90_30_Rapido->_Servo_Uno_30
    _Servos_90_30_Lento->_Servo_Dos_0
    _Servos_90_30_Lento->_Servo_Dos_15
    _Servos_90_30_Lento->_Servo_Dos_30
    _Servos_90_30_Lento->_Servo_Uno_0
    _Servos_90_30_Lento->_Servo_Uno_15
    _Servos_90_30_Lento->_Servo_Uno_30
    _Servos_60_60_Rapido->_Servo_Cinco_0
    _Servos_60_60_Rapido->_Servo_Cinco_30
    _Servos_60_60_Rapido->_Servo_Cinco_60
    _Servos_60_60_Rapido->_Servo_Seis_0
    _Servos_60_60_Rapido->_Servo_Seis_30
    _Servos_60_60_Rapido->_Servo_Seis_60
    _Servos_60_60_Lento->_Servo_Cinco_0
    _Servos_60_60_Lento->_Servo_Cinco_15
    _Servos_60_60_Lento->_Servo_Cinco_30
    _Servos_60_60_Lento->_Servo_Cinco_45
    _Servos_60_60_Lento->_Servo_Cinco_60
    _Servos_60_60_Lento->_Servo_Seis_0
    _Servos_60_60_Lento->_Servo_Seis_15
    _Servos_60_60_Lento->_Servo_Seis_30
    _Servos_60_60_Lento->_Servo_Seis_45
    _Servos_60_60_Lento->_Servo_Seis_60
    _Servos_60_30_Rapido->_Servo_Cinco_0
    _Servos_60_30_Rapido->_Servo_Cinco_30
    _Servos_60_30_Rapido->_Servo_Seis_0
    _Servos_60_30_Rapido->_Servo_Seis_30
    _Servos_60_30_Lento->_Servo_Cinco_0
    _Servos_60_30_Lento->_Servo_Cinco_15
    _Servos_60_30_Lento->_Servo_Cinco_30
    _Servos_60_30_Lento->_Servo_Seis_0
    _Servos_60_30_Lento->_Servo_Seis_15
    _Servos_60_30_Lento->_Servo_Seis_30
    _Servos_150_90->_Servo_Cuatro_105
    _Servos_150_90->_Servo_Cuatro_120
    _Servos_150_90->_Servo_Cuatro_30
    _Servos_150_90->_Servo_Cuatro_45
    _Servos_150_90->_Servo_Cuatro_60
    _Servos_150_90->_Servo_Cuatro_75
    _Servos_150_90->_Servo_Cuatro_90
    _Servos_150_90->_Servo_Tres_105
    _Servos_150_90->_Servo_Tres_120
    _Servos_150_90->_Servo_Tres_30
    _Servos_150_90->_Servo_Tres_45
    _Servos_150_90->_Servo_Tres_60
    _Servos_150_90->_Servo_Tres_75
    _Servos_150_90->_Servo_Tres_90
    _Servos_150_60->_Servo_Cuatro_105
    _Servos_150_60->_Servo_Cuatro_120
    _Servos_150_60->_Servo_Cuatro_30
    _Servos_150_60->_Servo_Cuatro_45
    _Servos_150_60->_Servo_Cuatro_60
    _Servos_150_60->_Servo_Cuatro_75
    _Servos_150_60->_Servo_Cuatro_90
    _Servos_150_60->_Servo_Tres_105
    _Servos_150_60->_Servo_Tres_120
    _Servos_150_60->_Servo_Tres_30
    _Servos_150_60->_Servo_Tres_45
    _Servos_150_60->_Servo_Tres_60
    _Servos_150_60->_Servo_Tres_75
    _Servos_150_60->_Servo_Tres_90
    _Servos_150_30->_Servo_Cuatro_105
    _Servos_150_30->_Servo_Cuatro_45
    _Servos_150_30->_Servo_Cuatro_60
    _Servos_150_30->_Servo_Cuatro_75
    _Servos_150_30->_Servo_Cuatro_90
    _Servos_150_30->_Servo_Tres_105
    _Servos_150_30->_Servo_Tres_45
    _Servos_150_30->_Servo_Tres_60
    _Servos_150_30->_Servo_Tres_75
    _Servos_150_30->_Servo_Tres_90
    _Servos_150_150->_Servo_Cuatro_0
    _Servos_150_150->_Servo_Cuatro_105
    _Servos_150_150->_Servo_Cuatro_120
    _Servos_150_150->_Servo_Cuatro_135
    _Servos_150_150->_Servo_Cuatro_15
    _Servos_150_150->_Servo_Cuatro_150
    _Servos_150_150->_Servo_Cuatro_30
    _Servos_150_150->_Servo_Cuatro_45
    _Servos_150_150->_Servo_Cuatro_60
    _Servos_150_150->_Servo_Cuatro_75
    _Servos_150_150->_Servo_Cuatro_90
    _Servos_150_150->_Servo_Tres_0
    _Servos_150_150->_Servo_Tres_105
    _Servos_150_150->_Servo_Tres_120
    _Servos_150_150->_Servo_Tres_135
    _Servos_150_150->_Servo_Tres_15
    _Servos_150_150->_Servo_Tres_150
    _Servos_150_150->_Servo_Tres_30
    _Servos_150_150->_Servo_Tres_45
    _Servos_150_150->_Servo_Tres_60
    _Servos_150_150->_Servo_Tres_75
    _Servos_150_150->_Servo_Tres_90
    _Servos_150_120->_Servo_Cuatro_105
    _Servos_150_120->_Servo_Cuatro_120
    _Servos_150_120->_Servo_Cuatro_135
    _Servos_150_120->_Servo_Cuatro_15
    _Servos_150_120->_Servo_Cuatro_30
    _Servos_150_120->_Servo_Cuatro_45
    _Servos_150_120->_Servo_Cuatro_60
    _Servos_150_120->_Servo_Cuatro_75
    _Servos_150_120->_Servo_Cuatro_90
    _Servos_150_120->_Servo_Tres_105
    _Servos_150_120->_Servo_Tres_120
    _Servos_150_120->_Servo_Tres_135
    _Servos_150_120->_Servo_Tres_15
    _Servos_150_120->_Servo_Tres_30
    _Servos_150_120->_Servo_Tres_45
    _Servos_150_120->_Servo_Tres_60
    _Servos_150_120->_Servo_Tres_75
    _Servos_150_120->_Servo_Tres_90
    _Servo_Posicion_Inicial->_Servo_Cinco_0
    _Servo_Posicion_Inicial->_Servo_Cuatro_75
    _Servo_Posicion_Inicial->_Servo_Dos_0
    _Servo_Posicion_Inicial->_Servo_Seis_0
    _Servo_Posicion_Inicial->_Servo_Tres_75
    _Servo_Posicion_Inicial->_Servo_Uno_0

Critical Paths under _main in BANK0

    None.

Critical Paths under _main in BANK1

    None.

Critical Paths under _main in BANK2

    None.

Critical Paths under _main in BANK3

    None.

Critical Paths under _main in BANK4

    None.

Critical Paths under _main in BANK5

    None.

Critical Paths under _main in BANK6

    None.

Critical Paths under _main in BANK7

    None.

Call Graph Tables:

 ---------------------------------------------------------------------------------
 (Depth) Function   	        Calls       Base Space   Used Autos Params    Refs
 ---------------------------------------------------------------------------------
 (0) _main                                                 2     2      0    4878
                                              3 COMRAM     2     2      0
                     _Inicializacion
               _Interrupciones_Usart
                                 _Rx
                     _Servos_150_120
                     _Servos_150_150
                      _Servos_150_30
                      _Servos_150_60
                      _Servos_150_90
                 _Servos_60_30_Lento
                _Servos_60_30_Rapido
                 _Servos_60_60_Lento
                _Servos_60_60_Rapido
                 _Servos_90_30_Lento
                _Servos_90_30_Rapido
                 _Servos_90_60_Lento
                 _Servos_90_90_Lento
                _Servos_90_90_Rapido
                    _UART0_Tx_String
 ---------------------------------------------------------------------------------
 (1) _UART0_Tx_String                                      2     0      2     288
                                              1 COMRAM     2     0      2
                             _Tx_str
 ---------------------------------------------------------------------------------
 (2) _Tx_str                                               1     1      0      15
                                              0 COMRAM     1     1      0
 ---------------------------------------------------------------------------------
 (1) _Servos_90_90_Rapido                                  0     0      0     240
                        _Servo_Dos_0
                       _Servo_Dos_30
                       _Servo_Dos_60
                       _Servo_Dos_90
                        _Servo_Uno_0
                       _Servo_Uno_30
                       _Servo_Uno_60
                       _Servo_Uno_90
 ---------------------------------------------------------------------------------
 (1) _Servos_90_90_Lento                                   0     0      0     420
                        _Servo_Dos_0
                       _Servo_Dos_15
                       _Servo_Dos_30
                       _Servo_Dos_45
                       _Servo_Dos_60
                       _Servo_Dos_75
                       _Servo_Dos_90
                        _Servo_Uno_0
                       _Servo_Uno_15
                       _Servo_Uno_30
                       _Servo_Uno_45
                       _Servo_Uno_60
                       _Servo_Uno_75
                       _Servo_Uno_90
 ---------------------------------------------------------------------------------
 (2) _Servo_Uno_90                                         3     3      0      30
                                              0 COMRAM     3     3      0
 ---------------------------------------------------------------------------------
 (2) _Servo_Uno_75                                         3     3      0      30
                                              0 COMRAM     3     3      0
 ---------------------------------------------------------------------------------
 (2) _Servo_Dos_90                                         3     3      0      30
                                              0 COMRAM     3     3      0
 ---------------------------------------------------------------------------------
 (2) _Servo_Dos_75                                         3     3      0      30
                                              0 COMRAM     3     3      0
 ---------------------------------------------------------------------------------
 (1) _Servos_90_60_Lento                                   0     0      0     300
                        _Servo_Dos_0
                       _Servo_Dos_15
                       _Servo_Dos_30
                       _Servo_Dos_45
                       _Servo_Dos_60
                        _Servo_Uno_0
                       _Servo_Uno_15
                       _Servo_Uno_30
                       _Servo_Uno_45
                       _Servo_Uno_60
 ---------------------------------------------------------------------------------
 (2) _Servo_Uno_60                                         3     3      0      30
                                              0 COMRAM     3     3      0
 ---------------------------------------------------------------------------------
 (2) _Servo_Uno_45                                         3     3      0      30
                                              0 COMRAM     3     3      0
 ---------------------------------------------------------------------------------
 (2) _Servo_Dos_60                                         3     3      0      30
                                              0 COMRAM     3     3      0
 ---------------------------------------------------------------------------------
 (2) _Servo_Dos_45                                         3     3      0      30
                                              0 COMRAM     3     3      0
 ---------------------------------------------------------------------------------
 (1) _Servos_90_30_Rapido                                  0     0      0     120
                        _Servo_Dos_0
                       _Servo_Dos_30
                        _Servo_Uno_0
                       _Servo_Uno_30
 ---------------------------------------------------------------------------------
 (1) _Servos_90_30_Lento                                   0     0      0     180
                        _Servo_Dos_0
                       _Servo_Dos_15
                       _Servo_Dos_30
                        _Servo_Uno_0
                       _Servo_Uno_15
                       _Servo_Uno_30
 ---------------------------------------------------------------------------------
 (2) _Servo_Uno_30                                         3     3      0      30
                                              0 COMRAM     3     3      0
 ---------------------------------------------------------------------------------
 (2) _Servo_Uno_15                                         3     3      0      30
                                              0 COMRAM     3     3      0
 ---------------------------------------------------------------------------------
 (2) _Servo_Dos_30                                         3     3      0      30
                                              0 COMRAM     3     3      0
 ---------------------------------------------------------------------------------
 (2) _Servo_Dos_15                                         3     3      0      30
                                              0 COMRAM     3     3      0
 ---------------------------------------------------------------------------------
 (1) _Servos_60_60_Rapido                                  0     0      0     180
                      _Servo_Cinco_0
                     _Servo_Cinco_30
                     _Servo_Cinco_60
                       _Servo_Seis_0
                      _Servo_Seis_30
                      _Servo_Seis_60
 ---------------------------------------------------------------------------------
 (1) _Servos_60_60_Lento                                   0     0      0     300
                      _Servo_Cinco_0
                     _Servo_Cinco_15
                     _Servo_Cinco_30
                     _Servo_Cinco_45
                     _Servo_Cinco_60
                       _Servo_Seis_0
                      _Servo_Seis_15
                      _Servo_Seis_30
                      _Servo_Seis_45
                      _Servo_Seis_60
 ---------------------------------------------------------------------------------
 (2) _Servo_Seis_60                                        3     3      0      30
                                              0 COMRAM     3     3      0
 ---------------------------------------------------------------------------------
 (2) _Servo_Seis_45                                        3     3      0      30
                                              0 COMRAM     3     3      0
 ---------------------------------------------------------------------------------
 (2) _Servo_Cinco_60                                       3     3      0      30
                                              0 COMRAM     3     3      0
 ---------------------------------------------------------------------------------
 (2) _Servo_Cinco_45                                       3     3      0      30
                                              0 COMRAM     3     3      0
 ---------------------------------------------------------------------------------
 (1) _Servos_60_30_Rapido                                  0     0      0     120
                      _Servo_Cinco_0
                     _Servo_Cinco_30
                       _Servo_Seis_0
                      _Servo_Seis_30
 ---------------------------------------------------------------------------------
 (1) _Servos_60_30_Lento                                   0     0      0     180
                      _Servo_Cinco_0
                     _Servo_Cinco_15
                     _Servo_Cinco_30
                       _Servo_Seis_0
                      _Servo_Seis_15
                      _Servo_Seis_30
 ---------------------------------------------------------------------------------
 (2) _Servo_Seis_30                                        3     3      0      30
                                              0 COMRAM     3     3      0
 ---------------------------------------------------------------------------------
 (2) _Servo_Seis_15                                        3     3      0      30
                                              0 COMRAM     3     3      0
 ---------------------------------------------------------------------------------
 (2) _Servo_Cinco_30                                       3     3      0      30
                                              0 COMRAM     3     3      0
 ---------------------------------------------------------------------------------
 (2) _Servo_Cinco_15                                       3     3      0      30
                                              0 COMRAM     3     3      0
 ---------------------------------------------------------------------------------
 (1) _Servos_150_90                                        0     0      0     420
                   _Servo_Cuatro_105
                   _Servo_Cuatro_120
                    _Servo_Cuatro_30
                    _Servo_Cuatro_45
                    _Servo_Cuatro_60
                    _Servo_Cuatro_75
                    _Servo_Cuatro_90
                     _Servo_Tres_105
                     _Servo_Tres_120
                      _Servo_Tres_30
                      _Servo_Tres_45
                      _Servo_Tres_60
                      _Servo_Tres_75
                      _Servo_Tres_90
 ---------------------------------------------------------------------------------
 (1) _Servos_150_60                                        0     0      0     420
                   _Servo_Cuatro_105
                   _Servo_Cuatro_120
                    _Servo_Cuatro_30
                    _Servo_Cuatro_45
                    _Servo_Cuatro_60
                    _Servo_Cuatro_75
                    _Servo_Cuatro_90
                     _Servo_Tres_105
                     _Servo_Tres_120
                      _Servo_Tres_30
                      _Servo_Tres_45
                      _Servo_Tres_60
                      _Servo_Tres_75
                      _Servo_Tres_90
 ---------------------------------------------------------------------------------
 (1) _Servos_150_30                                        0     0      0     300
                   _Servo_Cuatro_105
                    _Servo_Cuatro_45
                    _Servo_Cuatro_60
                    _Servo_Cuatro_75
                    _Servo_Cuatro_90
                     _Servo_Tres_105
                      _Servo_Tres_45
                      _Servo_Tres_60
                      _Servo_Tres_75
                      _Servo_Tres_90
 ---------------------------------------------------------------------------------
 (1) _Servos_150_150                                       0     0      0     660
                     _Servo_Cuatro_0
                   _Servo_Cuatro_105
                   _Servo_Cuatro_120
                   _Servo_Cuatro_135
                    _Servo_Cuatro_15
                   _Servo_Cuatro_150
                    _Servo_Cuatro_30
                    _Servo_Cuatro_45
                    _Servo_Cuatro_60
                    _Servo_Cuatro_75
                    _Servo_Cuatro_90
                       _Servo_Tres_0
                     _Servo_Tres_105
                     _Servo_Tres_120
                     _Servo_Tres_135
                      _Servo_Tres_15
                     _Servo_Tres_150
                      _Servo_Tres_30
                      _Servo_Tres_45
                      _Servo_Tres_60
                      _Servo_Tres_75
                      _Servo_Tres_90
 ---------------------------------------------------------------------------------
 (2) _Servo_Tres_150                                       3     3      0      30
                                              0 COMRAM     3     3      0
 ---------------------------------------------------------------------------------
 (2) _Servo_Tres_0                                         3     3      0      30
                                              0 COMRAM     3     3      0
 ---------------------------------------------------------------------------------
 (2) _Servo_Cuatro_150                                     3     3      0      30
                                              0 COMRAM     3     3      0
 ---------------------------------------------------------------------------------
 (2) _Servo_Cuatro_0                                       3     3      0      30
                                              0 COMRAM     3     3      0
 ---------------------------------------------------------------------------------
 (1) _Servos_150_120                                       0     0      0     540
                   _Servo_Cuatro_105
                   _Servo_Cuatro_120
                   _Servo_Cuatro_135
                    _Servo_Cuatro_15
                    _Servo_Cuatro_30
                    _Servo_Cuatro_45
                    _Servo_Cuatro_60
                    _Servo_Cuatro_75
                    _Servo_Cuatro_90
                     _Servo_Tres_105
                     _Servo_Tres_120
                     _Servo_Tres_135
                      _Servo_Tres_15
                      _Servo_Tres_30
                      _Servo_Tres_45
                      _Servo_Tres_60
                      _Servo_Tres_75
                      _Servo_Tres_90
 ---------------------------------------------------------------------------------
 (2) _Servo_Tres_90                                        3     3      0      30
                                              0 COMRAM     3     3      0
 ---------------------------------------------------------------------------------
 (2) _Servo_Tres_60                                        3     3      0      30
                                              0 COMRAM     3     3      0
 ---------------------------------------------------------------------------------
 (2) _Servo_Tres_45                                        3     3      0      30
                                              0 COMRAM     3     3      0
 ---------------------------------------------------------------------------------
 (2) _Servo_Tres_30                                        3     3      0      30
                                              0 COMRAM     3     3      0
 ---------------------------------------------------------------------------------
 (2) _Servo_Tres_15                                        3     3      0      30
                                              0 COMRAM     3     3      0
 ---------------------------------------------------------------------------------
 (2) _Servo_Tres_135                                       3     3      0      30
                                              0 COMRAM     3     3      0
 ---------------------------------------------------------------------------------
 (2) _Servo_Tres_120                                       3     3      0      30
                                              0 COMRAM     3     3      0
 ---------------------------------------------------------------------------------
 (2) _Servo_Tres_105                                       3     3      0      30
                                              0 COMRAM     3     3      0
 ---------------------------------------------------------------------------------
 (2) _Servo_Cuatro_90                                      3     3      0      30
                                              0 COMRAM     3     3      0
 ---------------------------------------------------------------------------------
 (2) _Servo_Cuatro_60                                      3     3      0      30
                                              0 COMRAM     3     3      0
 ---------------------------------------------------------------------------------
 (2) _Servo_Cuatro_45                                      3     3      0      30
                                              0 COMRAM     3     3      0
 ---------------------------------------------------------------------------------
 (2) _Servo_Cuatro_30                                      3     3      0      30
                                              0 COMRAM     3     3      0
 ---------------------------------------------------------------------------------
 (2) _Servo_Cuatro_15                                      3     3      0      30
                                              0 COMRAM     3     3      0
 ---------------------------------------------------------------------------------
 (2) _Servo_Cuatro_135                                     3     3      0      30
                                              0 COMRAM     3     3      0
 ---------------------------------------------------------------------------------
 (2) _Servo_Cuatro_120                                     3     3      0      30
                                              0 COMRAM     3     3      0
 ---------------------------------------------------------------------------------
 (2) _Servo_Cuatro_105                                     3     3      0      30
                                              0 COMRAM     3     3      0
 ---------------------------------------------------------------------------------
 (1) _Rx                                                   0     0      0       0
 ---------------------------------------------------------------------------------
 (1) _Interrupciones_Usart                                 2     2      0      30
                                              0 COMRAM     2     2      0
 ---------------------------------------------------------------------------------
 (1) _Inicializacion                                       0     0      0     180
                         _Confi_Blue
                        _Confi_Servo
             _Servo_Posicion_Inicial
 ---------------------------------------------------------------------------------
 (2) _Servo_Posicion_Inicial                               0     0      0     180
                      _Servo_Cinco_0
                    _Servo_Cuatro_75
                        _Servo_Dos_0
                       _Servo_Seis_0
                      _Servo_Tres_75
                        _Servo_Uno_0
 ---------------------------------------------------------------------------------
 (2) _Servo_Uno_0                                          3     3      0      30
                                              0 COMRAM     3     3      0
 ---------------------------------------------------------------------------------
 (2) _Servo_Tres_75                                        3     3      0      30
                                              0 COMRAM     3     3      0
 ---------------------------------------------------------------------------------
 (2) _Servo_Seis_0                                         3     3      0      30
                                              0 COMRAM     3     3      0
 ---------------------------------------------------------------------------------
 (2) _Servo_Dos_0                                          3     3      0      30
                                              0 COMRAM     3     3      0
 ---------------------------------------------------------------------------------
 (2) _Servo_Cuatro_75                                      3     3      0      30
                                              0 COMRAM     3     3      0
 ---------------------------------------------------------------------------------
 (2) _Servo_Cinco_0                                        3     3      0      30
                                              0 COMRAM     3     3      0
 ---------------------------------------------------------------------------------
 (2) _Confi_Servo                                          0     0      0       0
 ---------------------------------------------------------------------------------
 (2) _Confi_Blue                                           0     0      0       0
 ---------------------------------------------------------------------------------
 Estimated maximum stack depth 2
 ---------------------------------------------------------------------------------

 Call Graph Graphs:

 _main (ROOT)
   _Inicializacion
     _Confi_Blue
     _Confi_Servo
     _Servo_Posicion_Inicial
       _Servo_Cinco_0
       _Servo_Cuatro_75
       _Servo_Dos_0
       _Servo_Seis_0
       _Servo_Tres_75
       _Servo_Uno_0
   _Interrupciones_Usart
   _Rx
   _Servos_150_120
     _Servo_Cuatro_105
     _Servo_Cuatro_120
     _Servo_Cuatro_135
     _Servo_Cuatro_15
     _Servo_Cuatro_30
     _Servo_Cuatro_45
     _Servo_Cuatro_60
     _Servo_Cuatro_75
     _Servo_Cuatro_90
     _Servo_Tres_105
     _Servo_Tres_120
     _Servo_Tres_135
     _Servo_Tres_15
     _Servo_Tres_30
     _Servo_Tres_45
     _Servo_Tres_60
     _Servo_Tres_75
     _Servo_Tres_90
   _Servos_150_150
     _Servo_Cuatro_0
     _Servo_Cuatro_105
     _Servo_Cuatro_120
     _Servo_Cuatro_135
     _Servo_Cuatro_15
     _Servo_Cuatro_150
     _Servo_Cuatro_30
     _Servo_Cuatro_45
     _Servo_Cuatro_60
     _Servo_Cuatro_75
     _Servo_Cuatro_90
     _Servo_Tres_0
     _Servo_Tres_105
     _Servo_Tres_120
     _Servo_Tres_135
     _Servo_Tres_15
     _Servo_Tres_150
     _Servo_Tres_30
     _Servo_Tres_45
     _Servo_Tres_60
     _Servo_Tres_75
     _Servo_Tres_90
   _Servos_150_30
     _Servo_Cuatro_105
     _Servo_Cuatro_45
     _Servo_Cuatro_60
     _Servo_Cuatro_75
     _Servo_Cuatro_90
     _Servo_Tres_105
     _Servo_Tres_45
     _Servo_Tres_60
     _Servo_Tres_75
     _Servo_Tres_90
   _Servos_150_60
     _Servo_Cuatro_105
     _Servo_Cuatro_120
     _Servo_Cuatro_30
     _Servo_Cuatro_45
     _Servo_Cuatro_60
     _Servo_Cuatro_75
     _Servo_Cuatro_90
     _Servo_Tres_105
     _Servo_Tres_120
     _Servo_Tres_30
     _Servo_Tres_45
     _Servo_Tres_60
     _Servo_Tres_75
     _Servo_Tres_90
   _Servos_150_90
     _Servo_Cuatro_105
     _Servo_Cuatro_120
     _Servo_Cuatro_30
     _Servo_Cuatro_45
     _Servo_Cuatro_60
     _Servo_Cuatro_75
     _Servo_Cuatro_90
     _Servo_Tres_105
     _Servo_Tres_120
     _Servo_Tres_30
     _Servo_Tres_45
     _Servo_Tres_60
     _Servo_Tres_75
     _Servo_Tres_90
   _Servos_60_30_Lento
     _Servo_Cinco_0
     _Servo_Cinco_15
     _Servo_Cinco_30
     _Servo_Seis_0
     _Servo_Seis_15
     _Servo_Seis_30
   _Servos_60_30_Rapido
     _Servo_Cinco_0
     _Servo_Cinco_30
     _Servo_Seis_0
     _Servo_Seis_30
   _Servos_60_60_Lento
     _Servo_Cinco_0
     _Servo_Cinco_15
     _Servo_Cinco_30
     _Servo_Cinco_45
     _Servo_Cinco_60
     _Servo_Seis_0
     _Servo_Seis_15
     _Servo_Seis_30
     _Servo_Seis_45
     _Servo_Seis_60
   _Servos_60_60_Rapido
     _Servo_Cinco_0
     _Servo_Cinco_30
     _Servo_Cinco_60
     _Servo_Seis_0
     _Servo_Seis_30
     _Servo_Seis_60
   _Servos_90_30_Lento
     _Servo_Dos_0
     _Servo_Dos_15
     _Servo_Dos_30
     _Servo_Uno_0
     _Servo_Uno_15
     _Servo_Uno_30
   _Servos_90_30_Rapido
     _Servo_Dos_0
     _Servo_Dos_30
     _Servo_Uno_0
     _Servo_Uno_30
   _Servos_90_60_Lento
     _Servo_Dos_0
     _Servo_Dos_15
     _Servo_Dos_30
     _Servo_Dos_45
     _Servo_Dos_60
     _Servo_Uno_0
     _Servo_Uno_15
     _Servo_Uno_30
     _Servo_Uno_45
     _Servo_Uno_60
   _Servos_90_90_Lento
     _Servo_Dos_0
     _Servo_Dos_15
     _Servo_Dos_30
     _Servo_Dos_45
     _Servo_Dos_60
     _Servo_Dos_75
     _Servo_Dos_90
     _Servo_Uno_0
     _Servo_Uno_15
     _Servo_Uno_30
     _Servo_Uno_45
     _Servo_Uno_60
     _Servo_Uno_75
     _Servo_Uno_90
   _Servos_90_90_Rapido
     _Servo_Dos_0
     _Servo_Dos_30
     _Servo_Dos_60
     _Servo_Dos_90
     _Servo_Uno_0
     _Servo_Uno_30
     _Servo_Uno_60
     _Servo_Uno_90
   _UART0_Tx_String
     _Tx_str

 Address spaces:
Name               Size   Autos  Total    Cost      Usage
BIGRAM             7FF      0       0      21        0.0%
EEDATA             100      0       0       0        0.0%
BITBANK7           100      0       0      18        0.0%
BANK7              100      0       0      19        0.0%
BITBANK6           100      0       0      16        0.0%
BANK6              100      0       0      17        0.0%
BITBANK5           100      0       0      14        0.0%
BANK5              100      0       0      15        0.0%
BITBANK4           100      0       0      12        0.0%
BANK4              100      0       0      13        0.0%
BITBANK3           100      0       0      10        0.0%
BANK3              100      0       0      11        0.0%
BITBANK2           100      0       0       8        0.0%
BANK2              100      0       0       9        0.0%
BITBANK1           100      0       0       6        0.0%
BANK1              100      0       0       7        0.0%
BITBANK0            A0      0       0       4        0.0%
BANK0               A0      0       0       5        0.0%
BITCOMRAM           5F      0       0       0        0.0%
COMRAM              5F      5       7       1        7.4%
BITSFR               0      0       0     200        0.0%
SFR                  0      0       0     200        0.0%
STACK                0      0       0       2        0.0%
NULL                 0      0       0       0        0.0%
ABS                  0      0       7      20        0.0%
DATA                 0      0       7       3        0.0%
CODE                 0      0       0       0        0.0%


Microchip Technology PIC18 Macro Assembler V2.10 build 88905656 
Symbol Table                                                                                   Thu Nov 21 18:15:41 2019

                             u10 0DC4                               u11 0DC0  
                             u20 0E14                               u21 0E10  
                             u30 1ADA                               u31 1AD6  
                             u40 1A4A                               u41 1A46  
                             u50 1A02                               u51 19FE  
                             u60 1A92                               u61 1A8E  
                             u70 120A                               u71 1206  
                             u80 1390                               u81 138C  
                             u90 0D24                               u91 0D20  
                             _Rx 1C76                      __CFG_BORV$3 000000  
               ?_Servo_Cuatro_30 0001                 ?_Servo_Cuatro_15 0001  
               ?_Servo_Cuatro_60 0001                 ?_Servo_Cuatro_45 0001  
               ?_Servo_Cuatro_90 0001                 ?_Servo_Cuatro_75 0001  
                   __CFG_CP0$OFF 000000                     __CFG_CP1$OFF 000000  
                   __CFG_CP2$OFF 000000                     __CFG_CP3$OFF 000000  
                            ?_Rx 0001                              l110 1896  
                            l113 0BD6                              l122 0A0E  
                            l107 1C42                              l131 1B46  
                            l116 0B6C                              l301 1644  
                            l125 1BF6                              l134 17B8  
                            l231 1A92                              l311 12A6  
                            l119 0A98                              l143 1B14  
                            l304 18A0                              l128 1B9A  
                            l152 0B02                              l161 1C74  
                            l321 0DC4                              l401 14C8  
                            l241 176E                              l137 1BDC  
                            l306 18E0                              l314 1214  
                            l234 151E                              l146 1B70  
                            l331 0D24                              l411 11BC  
                            l171 1514                              l251 0F9A  
                            l164 19C4                              l404 1436  
                            l316 1258                              l324 11C6  
                            l236 1560                              l244 0FA4  
                            l229 1A54                              l341 12F4  
                            l309 1262                              l501 1802  
                            l181 0F4C                              l149 16DA  
                            l261 0EB0                              l166 1A02  
                            l406 147A                              l334 12FE  
                            l326 120A                              l174 16E4  
                            l246 0FE8                              l254 0C8E  
                            l319 0D7E                              l431 15F8  
                            l511 1036                              l239 172E  
                            l191 0C84                              l424 1A9C  
                            l336 1342                              l344 112A  
                            l504 1040                              l176 1724  
                            l184 0EBA                              l256 0CD4  
                            l329 0CDE                              l361 19BA  
                            l409 1178                              l441 1120  
                            l169 14D2                              l249 0F56  
                            l426 1ADA                              l346 116E  
                            l434 180C                              l506 1084  
                            l186 0EFE                              l194 0E1E  
                            l371 192A                              l339 12B0  
                            l179 0F08                              l259 0E6C  
                            l364 164E                              l436 184C  
                            l444 108E                              l196 0E62  
                            l381 13DE                              l429 15B6  
                            l509 0FF2                              l189 0C3E  
                            l366 1690                              l374 13E8  
                            l294 1934                              l446 10D2  
                            l391 1390                              l359 197C  
                            l439 10DC                              l384 0DCE  
                            l376 142C                              l296 1972  
                            l369 18EA                              l386 0E14  
                            l554 1C10                              l394 0D2E  
                            l491 1A4A                              l379 139A  
                            l299 1602                              l396 0D74  
                            l652 1C46                              l389 134C  
                            l646 1C2A                              l494 156A  
                            l399 1484                              l655 1C58  
                            l496 15AC                              l489 1A0C  
                            l649 1BC2                              l658 1C78  
                            l499 17C2                              l667 0C34  
                   __CFG_CPB$OFF 000000                              u100 0D74  
                            u101 0D70                              u110 1258  
                            u111 1254                              u200 147A  
                            u120 13DE                              u201 1476  
                            u121 13DA                              u210 1644  
                            u130 12A6                              u211 1640  
                            u131 12A2                              u220 1690  
                            u140 142C                              u300 1036  
                            u221 168C                              u141 1428  
                            u301 1032                              u150 1342  
                            u230 116E                              u310 15F8  
                            u151 133E                              u231 116A  
                            u311 15F4                              u160 14C8  
                            u240 11BC                              u320 15AC  
                            u400 0EB0                              u161 14C4  
                            u241 11B8                              u321 15A8  
                            u401 0EAC                              u170 18E0  
                            u250 1972                              u330 1120  
                            u410 1514                              u171 18DC  
                            u251 196E                              u331 111C  
                            u411 1510                              u180 192A  
                            u260 19BA                              u340 1084  
                            u420 1560                              u181 1926  
                            u261 19B6                              u341 1080  
                            u421 155C                              u190 12F4  
                            u270 184C                              u350 1724  
                            u430 0F4C                              u191 12F0  
                            u271 1848                              u351 1720  
                            u431 0F48                              u280 1802  
                            u360 176E                              u440 0FE8  
                            u281 17FE                              u361 176A  
                            u441 0FE4                              u290 10D2  
                            u370 0EFE                              u450 0C84  
                   __CFG_CPD$OFF 000000                              u291 10CE  
                            u371 0EFA                              u451 0C80  
                            u380 0F9A                              u460 0CD4  
                            u381 0F96                              u461 0CD0  
                            u390 0E62                              u470 1C54  
                            u391 0E5E                              u471 1C50  
                            u900 0C34                              u485 1BBE  
                            u901 0C30                              u486 1BC0  
                            u910 0844                              u911 0840  
                            u880 0BFC                              u890 0C24  
                            u957 0E28                              u967 0E3A  
                            u887 0BF2                              u977 0C48  
                            u897 0C1A                              u987 0C5A  
                            u997 0E76                     __CFG_BOR$OFF 000000  
                            _aux 0006                              wreg 000FE8  
              ?_Servo_Cuatro_120 0001                ?_Servo_Cuatro_105 0001  
              ?_Servo_Cuatro_150 0001                ?_Servo_Cuatro_135 0001  
                           ??_Rx 0001                     __CFG_LVP$OFF 000000  
             ??_Servo_Cuatro_120 0001               ??_Servo_Cuatro_105 0001  
             ??_Servo_Cuatro_150 0001               ??_Servo_Cuatro_135 0001  
                   __CFG_WDT$OFF 000000                             l1411 1A4C  
                           l1421 1A72                             l1405 19C8  
                           l1501 1218                             l1431 1C1A  
                           l1423 1C68                             l1351 0D76  
                           l1407 19D0                             l1503 1228  
                           l1441 1C24                             l1433 1C1C  
                           l1417 1A58                             l1361 0DA4  
                           l1409 19E2                             l1425 1BF8  
                           l1513 139E                             l1601 12D4  
                           l1505 1238                             l1443 1C26  
                           l1435 1C1E                             l1427 1C12  
                           l1371 0DE2                             l1363 0DC6  
                           l1419 1A60                             l1611 144A  
                           l1603 142E                             l1531 13E0  
                           l1515 13AE                             l1507 1392  
                           l1445 1C28                             l1437 1C20  
                           l1429 1C16                             l1381 1AA0  
                           l1373 0DF4                             l1357 0D82  
                           l1613 145A                             l1541 140C  
                           l1517 13BE                             l1621 1606  
                           l1525 1266                             l1453 11CA  
                           l2501 0898                             l1439 1C22  
                           l1383 1AA8                             l1375 1A94  
                           l1359 0D92                             l1471 0CD6  
                           l1551 1310                             l1543 12F6  
                           l1623 1614                             l1615 15FA  
                           l1527 1274                             l1519 125A  
                           l1455 11DA                             l1447 11BE  
                           l1711 1086                             l2503 08A0  
                           l1385 1ABA                             l1369 0DD2  
                           l1393 1A10                             l1561 1488  
                           l1609 143A                             l1633 1652  
                           l1537 13EC                             l1465 1350  
                           l1481 0D04                             l1553 1322  
                           l1625 1624                             l1529 1286  
                           l1457 11EA                             l1705 17C6  
                           l1721 10B2                             l1801 1732  
                           l2513 08C0                             l2505 08A8  
                           l1395 1A18                             l1387 1A04  
                           l1491 0D42                             l1483 0D26  
                           l1563 1496                             l1555 147C  
                           l1635 1660                             l1627 1646  
                           l1539 13FA                             l1467 1360  
                           l1459 1344                             l1651 1170  
                           l1707 17D2                             l1731 1006  
                           l1723 0FEA                             l1803 173E  
                           l2507 08B0                             l1397 1A2A  
                           l1493 0D54                             l1565 14A8  
                           l1637 1670                             l1469 1370  
                           l1477 0CE2                             l1549 1302  
                           l1573 18A4                             l1661 119C  
                           l1645 112E                             l1741 15BA  
                           l1709 17E2                             l1717 1092  
                           l1733 1016                             l1805 174E  
                           l1901 0FC8                             l1813 0EBE  
                           l2509 08B8                             l2517 08D0  
                           l1399 19BC                             l1479 0CF2  
                           l1591 12A8                             l1575 18B0  
                           l1567 1898                             l1495 120C  
                           l1671 1940                             l1663 192C  
                           l1647 113C                             l1639 1122  
                           l1743 15C8                             l1735 15AE  
                           l1719 10A2                             l1815 0ECE  
                           l1807 0EB2                             l1911 0C52  
                           l1903 0C36                             l1831 0E16  
                           l2471 0C04                             l1489 0D32  
                           l1585 18EE                             l1577 18C0  
                           l1681 1980                             l1657 117C  
                           l1673 1952                             l1649 114E  
                           l1745 15D8                             l1753 156E  
                           l1729 0FF6                             l1825 0F5A  
                           l1817 0EDE                             l1921 0C92  
                           l1913 0C64                             l1841 0E42  
                           l2465 0BD8                             l2481 0846  
                           l2473 0820                             l1931 1C2C  
                           l1587 18FA                             l1579 18E2  
                           l1683 1988                             l1675 1974  
                           l1659 118A                             l1755 157C  
                           l1747 1562                             l1771 1038  
                           l1827 0F6A                             l1819 0F4E  
                           l1923 0CA2                             l1915 0C86  
                           l1851 0E80                             l1843 0E64  
                           l2467 0BDC                             l2491 0870  
                           l2483 0850                             l2475 082A  
                           l1933 1C34                             l1589 190A  
                           l1597 12B4                             l1685 199A  
                           l1669 1938                             l1941 184E  
                           l1693 1810                             l1757 158C  
                           l1765 10E0                             l1781 1064  
                           l1861 14D6                             l1829 0F7A  
                           l1925 0CB4                             l1853 0E90  
                           l1909 0C42                             l1837 0E22  
                           l2469 0C00                             l2557 08E4  
                           l2493 0878                             l2485 0858  
                           l2477 0836                             l1935 1C36  
                           l1599 12C4                             l1943 0B6E  
                           l1695 181C                             l1687 1804  
                           l1951 1BDE                             l1767 10EE  
                           l1759 10D4                             l1863 14E4  
                           l1855 14CA                             l1791 16F4  
                           l1783 16DC                             l1839 0E32  
                           l1927 1C46                             l2495 0880  
                           l2487 0860                             l2479 0844  
                           l1937 1C3A                             l1945 0B04  
                           l1697 182C                             l1769 1100  
                           l1777 1044                             l1953 1B72  
                           l1873 1522                             l1865 14F4  
                           l1793 1704                             l1849 0E70  
                           l1961 1ADC                             l1929 1C54  
                           l2497 0888                             l2489 0868  
                           l1939 1C3E                             l1971 1BA0  
                           l1947 0A10                             l1699 17BA  
                           l1955 1B16                             l1779 1052  
                           l1875 1530                             l1867 1516  
                           l1795 1726                             l1963 1B48  
                           l1891 0F9C                             l2499 0890  
                           l1973 1BB2                             l1949 0966  
                           l1957 1770                             l1877 1540  
                           l1789 16E8                             l1885 0F0C  
                           l1965 1692                             l1975 1BB4  
                           l1959 1BC4                             l1887 0F1A  
                           l1879 0F00                             l1967 0A9A  
                           l1977 1BB6                             l1969 1B9E  
                           l1897 0FA8                             l1889 0F2C  
                           l1979 1BC0                             l1899 0FB6  
                           l1989 1C76                             STR_1 081A  
                           STR_2 0801                             u1007 0E88  
                           u1017 0C98                             u1107 0FBE  
                           u1027 0CAA                             u1117 16EA  
                           u1037 0EC4                             u1207 100E  
                           u1127 16FC                             u1047 0ED6  
                           u1217 104A                             u1137 14D8  
                           u1057 0F12                             u1307 1584  
                           u1227 105A                             u1147 14EC  
                           u1067 0F22                             u1317 1812  
                           u1237 1098                             u1157 1734  
                           u1077 0F60                             u1407 1192  
                           u1327 1824                             u1247 10AA  
                           u1167 1746                             u1087 0F72  
                           u1417 1982                             u1337 15BC  
                           u1257 10E6                             u1177 1524  
                           u1097 0FAE                             u1507 18B8  
                           u1427 1990                             u1347 15D0  
                           u1267 10F6                             u1187 1538  
                           u1517 1608                             u1437 11D0  
                           u1357 1134                             u1277 17C8  
                           u1197 0FFC                             u1607 1368  
                           u1527 161C                             u1447 11E2  
                           u1367 1144                             u1287 17DA  
                           u1617 13A4                             u1537 12BA  
                           u1457 121E                             u1377 193A  
                           u1297 1570                             u1707 1452  
                           u1627 13B6                             u1547 12CC  
                           u1467 1230                             u1387 1948  
                           u1717 148E                             u1637 13F2  
                           u1557 1308                             u1477 126C  
                           u1397 1182                             u1807 1A20  
                           u1727 149E                             u1647 1402  
                           u1567 1318                             u1487 127C  
                           u1817 1A5A                             u1737 0D38  
                           u1657 18F0                             u1577 0CE8  
                           u1497 18A6                             u1827 1A68  
                           u1747 0D4A                             u1667 1902  
                           u1587 0CFA                             u1837 0DD8  
                           u1757 19CA                             u1677 1654  
                           u1597 1356                             u1847 0DEA  
                           u1767 19D8                             u1687 1668  
                           u1857 1AA2                             u1777 0D88  
                           u1697 1440                             u1867 1AB0  
                           u1787 0D9A      __size_of_Servos_60_30_Lento 0032  
                           u1797 1A12                   _Inicializacion 1C2C  
    __size_of_Servos_60_60_Lento 004A                             _main 0820  
                           fsr0h 000FEA                             indf0 000FEF  
                           fsr0l 000FE9           ??_Interrupciones_Usart 0001  
                           start 0000          ?_Servo_Posicion_Inicial 0001  
                  __CFG_IESO$OFF 000000              __end_of_Confi_Servo 1C76  
                  __CFG_MCLRE$ON 000000                     ___param_bank 000000  
                  __CFG_PLLDIV$5 000000                   __CFG_CCP2MX$ON 000000  
                          ?_main 0001                       _Confi_Blue 1C12  
                          _RCREG 000FAE     __size_of_Servos_60_30_Rapido 001A  
                          _SPBRG 000FAF                    __CFG_USBDIV$1 000000  
                          _TXREG 000FAD                    __CFG_PWRT$OFF 000000  
    __size_of_Servos_90_30_Lento 002A                    __CFG_WRT0$OFF 000000  
                  __CFG_WRT1$OFF 000000                    __CFG_WRT2$OFF 000000  
                  __CFG_WRT3$OFF 000000                   __CFG_EBTR0$OFF 000000  
                 __CFG_FCMEN$OFF 000000                   __CFG_EBTR1$OFF 000000  
                 __CFG_EBTR2$OFF 000000                   __CFG_EBTR3$OFF 000000  
                  __CFG_WRTB$OFF 000000                    __CFG_WRTC$OFF 000000  
                  __CFG_WRTD$OFF 000000      __size_of_Servos_90_60_Lento 004A  
                 __CFG_EBTRB$OFF 000000     __size_of_Servos_60_60_Rapido 002A  
    __size_of_Servos_90_90_Lento 006A           __end_of_Inicializacion 1C44  
                _UART0_Tx_String 0BD8                            tablat 000FF5  
                          status 000FD8   __end_of_Servo_Posicion_Inicial 1C12  
                 __CFG_ICPRT$OFF 000000                  __initialization 1C5A  
                   __end_of_main 0966                           ??_main 0004  
                  __activetblptr 000002          __size_of_Servo_Cinco_30 004A  
        __size_of_Servo_Cinco_15 004C          __size_of_Servo_Cinco_60 004E  
        __size_of_Servo_Cinco_45 004E                  ?_Inicializacion 0001  
                    _Confi_Servo 1C68          __size_of_Servo_Cuatro_0 0048  
   __size_of_Servos_90_30_Rapido 001A                   __CFG_XINST$OFF 000000  
                         _Tx_str 1C44                   __CFG_STVREN$ON 000000  
        __size_of_Servos_150_120 008A          __size_of_Servos_150_150 00AA  
        __size_of_Servo_Tres_120 004E          __size_of_Servo_Tres_105 0050  
        __size_of_Servo_Tres_150 004E          __size_of_Servo_Tres_135 004E  
          __end_of_Servo_Cinco_0 1ADC                 Servo_Cuatro_30@i 0002  
               Servo_Cuatro_15@i 0002                 Servo_Cuatro_60@i 0002  
               Servo_Cuatro_45@i 0002                 Servo_Cuatro_90@i 0002  
               Servo_Cuatro_75@i 0002                    ??_Servo_Dos_0 0001  
   __size_of_Servos_90_90_Rapido 003A                      ?_Confi_Blue 0001  
                  ??_Servo_Uno_0 0001          __end_of_UART0_Tx_String 0C36  
          __end_of_Servo_Seis_30 1804            __end_of_Servo_Seis_15 15AE  
          __end_of_Servo_Seis_60 1038            __end_of_Servo_Seis_45 1086  
                   __mediumconst 0000            __end_of_Servos_150_30 1898  
          __end_of_Servos_150_60 0BD8            __end_of_Servos_150_90 0B6E  
                         tblptrh 000FF7                           tblptrl 000FF6  
                         tblptru 000FF8            __end_of_Servo_Tres_30 18E2  
          __end_of_Servo_Tres_15 1646            __end_of_Servo_Tres_60 125A  
          __end_of_Servo_Tres_45 12A8            __end_of_Servo_Tres_90 120C  
          __end_of_Servo_Tres_75 0DC6                       __accesstop 0060  
        __end_of__initialization 1C5E                  __CFG_PBADEN$OFF 000000  
                  ___rparam_used 000001                   __pcstackCOMRAM 0001  
                 Servo_Cinco_0@i 0002                       __end_of_Rx 1C7A  
            __end_of_Servo_Dos_0 1A94              __end_of_Servo_Uno_0 1A04  
                     Tx_str@data 0001              _Servos_60_30_Rapido 1BDE  
            __size_of_Confi_Blue 001A        __size_of_Servo_Cuatro_120 004E  
      __size_of_Servo_Cuatro_105 0050        __size_of_Servo_Cuatro_150 004E  
      __size_of_Servo_Cuatro_135 004E                   Servo_Seis_30@i 0002  
                 Servo_Seis_15@i 0002                   Servo_Seis_60@i 0002  
                 Servo_Seis_45@i 0002                          ?_Tx_str 0001  
            _Servos_60_60_Rapido 1B72             ?_Servos_60_30_Rapido 0001  
                 Servo_Tres_30@i 0002                   Servo_Tres_15@i 0002  
                 Servo_Tres_60@i 0002                   Servo_Tres_45@i 0002  
                 Servo_Tres_90@i 0002                   Servo_Tres_75@i 0002  
               ?_UART0_Tx_String 0002                   _Servo_Cinco_30 1804  
                 _Servo_Cinco_15 15AE                   _Servo_Cinco_60 1086  
     __end_of_Servos_60_30_Lento 1B48                   _Servo_Cinco_45 10D4  
       __size_of_Servo_Cuatro_30 004A         __size_of_Servo_Cuatro_15 004C  
       __size_of_Servo_Cuatro_60 004E         __size_of_Servo_Cuatro_45 004E  
       __size_of_Servo_Cuatro_90 004E         __size_of_Servo_Cuatro_75 0050  
           ?_Servos_60_60_Rapido 0001                    ?_Servo_Dos_30 0001  
                  ?_Servo_Dos_15 0001                    ?_Servo_Dos_60 0001  
                  ?_Servo_Dos_45 0001                    ?_Servo_Dos_90 0001  
                  ?_Servo_Dos_75 0001       __end_of_Servos_60_60_Lento 17BA  
                  ?_Servo_Seis_0 0001                    ?_Servo_Uno_30 0001  
                  ?_Servo_Uno_15 0001                    ?_Servo_Uno_60 0001  
                  ?_Servo_Uno_45 0001                   _Servo_Cuatro_0 1974  
                  ?_Servo_Uno_90 0001                    ?_Servo_Uno_75 0001  
                __CFG_VREGEN$OFF 000000                    ?_Servo_Tres_0 0001  
                        _Mensaje 0007                          __Hparam 0000  
             UART0_Tx_String@str 0002                          __Lparam 0000  
  __size_of_Interrupciones_Usart 0028                   _Servos_150_120 0A10  
                 _Servos_150_150 0966                  __size_of_Tx_str 0016  
                 _Servo_Tres_120 12F6                   _Servo_Tres_105 0CD6  
                 _Servo_Tres_150 1122                   _Servo_Tres_135 12A8  
                   __psmallconst 0800                          __pcinit 1C5A  
                        __ramtop 0800                          __ptext0 0820  
                        __ptext1 0BD8                          __ptext2 1C44  
                        __ptext3 1ADC                          __ptext4 0A9A  
                        __ptext5 0E16                          __ptext6 0C36  
                        __ptext7 0E64                          __ptext8 0C86  
                        __ptext9 1692       __end_of_Servos_90_30_Lento 1B72  
                    _Servo_Dos_0 1A4C            ??_Servos_60_30_Rapido 0004  
                    _Servo_Uno_0 19BC       __end_of_Servos_90_60_Lento 16DC  
            _Servos_90_30_Rapido 1BC4           __end_of_Servo_Cinco_30 184E  
         __end_of_Servo_Cinco_15 15FA           __end_of_Servo_Cinco_60 10D4  
         __end_of_Servo_Cinco_45 1122                 ??_Inicializacion 0004  
              Servo_Cuatro_120@i 0002                Servo_Cuatro_105@i 0002  
              Servo_Cuatro_150@i 0002                Servo_Cuatro_135@i 0002  
     __end_of_Servos_90_90_Lento 0B04            ??_Servos_60_60_Rapido 0004  
                 ??_Servo_Dos_30 0001                   ??_Servo_Dos_15 0001  
                 ??_Servo_Dos_60 0001                   ??_Servo_Dos_45 0001  
                 ??_Servo_Dos_90 0001                   ??_Servo_Dos_75 0001  
         __end_of_Servo_Cuatro_0 19BC             end_of_initialization 1C5E  
                 ??_Servo_Seis_0 0001                   ??_Servo_Uno_30 0001  
                 ??_Servo_Uno_15 0001                   ??_Servo_Uno_60 0001  
                 ??_Servo_Uno_45 0001                   ??_Servo_Uno_90 0001  
                 ??_Servo_Uno_75 0001                   ??_Servo_Tres_0 0001  
                   ?_Confi_Servo 0001                    __Lmediumconst 0000  
            _Servos_90_90_Rapido 1ADC             ?_Servos_90_30_Rapido 0001  
         __end_of_Servos_150_120 0A9A           __end_of_Servos_150_150 0A10  
         __end_of_Servo_Tres_120 1344           __end_of_Servo_Tres_105 0D26  
         __end_of_Servo_Tres_150 1170           __end_of_Servo_Tres_135 12F6  
                      _RCSTAbits 000FAB             ?_Servos_90_90_Rapido 0001  
                   ??_Confi_Blue 0001                  ?_Servo_Cinco_30 0001  
                ?_Servo_Cinco_15 0001                  ?_Servo_Cinco_60 0001  
                ?_Servo_Cinco_45 0001                        _TRISBbits 000F93  
                      _TRISCbits 000F94                  ?_Servo_Cuatro_0 0001  
              ??_Servo_Cuatro_30 0001                ??_Servo_Cuatro_15 0001  
              ??_Servo_Cuatro_60 0001                ??_Servo_Cuatro_45 0001  
              ??_Servo_Cuatro_90 0001                ??_Servo_Cuatro_75 0001  
                      _TXSTAbits 000FAC            ??_Servos_90_30_Rapido 0004  
               _Servo_Cuatro_120 147C                 _Servo_Cuatro_105 0D26  
               _Servo_Cuatro_150 1170                 _Servo_Cuatro_135 142E  
             __end_of_Confi_Blue 1C2C                  ?_Servos_150_120 0001  
                ?_Servos_150_150 0001                  ?_Servo_Tres_120 0001  
                ?_Servo_Tres_105 0001                  ?_Servo_Tres_150 0001  
                ?_Servo_Tres_135 0001                   __end_of_Tx_str 1C5A  
                    _BAUDCONbits 000FB8            ??_Servos_90_90_Rapido 0004  
                Servo_Cinco_30@i 0002                  Servo_Cinco_15@i 0002  
                Servo_Cinco_60@i 0002                  Servo_Cinco_45@i 0002  
            start_initialization 1C5A         ??_Servo_Posicion_Inicial 0004  
         __size_of_Servo_Cinco_0 0048           __size_of_Servo_Seis_30 004A  
         __size_of_Servo_Seis_15 004C           __size_of_Servo_Seis_60 004E  
         __size_of_Servo_Seis_45 004E                         ??_Tx_str 0001  
         __size_of_Servos_150_30 004A           __size_of_Servos_150_60 006A  
         __size_of_Servos_150_90 006A           __size_of_Servo_Tres_30 004A  
         __size_of_Servo_Tres_15 004C           __size_of_Servo_Tres_60 004E  
         __size_of_Servo_Tres_45 004E           __size_of_Servo_Tres_90 004E  
         __size_of_Servo_Tres_75 0050             __end_of_Servo_Dos_30 1770  
           __end_of_Servo_Dos_15 1562             __end_of_Servo_Dos_60 0F9C  
           __end_of_Servo_Dos_45 0FEA             __end_of_Servo_Dos_90 0EB2  
           __end_of_Servo_Dos_75 0CD6                  Servo_Cuatro_0@i 0002  
               __CFG_LPT1OSC$OFF 000000             __end_of_Servo_Seis_0 1A4C  
           __end_of_Servo_Uno_30 1726             __end_of_Servo_Uno_15 1516  
           __end_of_Servo_Uno_60 0F00             __end_of_Servo_Uno_45 0F4E  
           __end_of_Servo_Uno_90 0E64             __end_of_Servo_Uno_75 0C86  
           __end_of_Servo_Tres_0 1974                      __pbssCOMRAM 0006  
                  Servo_Dos_30@i 0002                    Servo_Dos_15@i 0002  
                  Servo_Dos_60@i 0002                    Servo_Dos_45@i 0002  
                  Servo_Dos_90@i 0002                    Servo_Dos_75@i 0002  
           __size_of_Confi_Servo 000E               _Servos_60_30_Lento 1B16  
                  Servo_Seis_0@i 0002               _Servos_60_60_Lento 1770  
                  Servo_Uno_30@i 0002                    Servo_Uno_15@i 0002  
                  Servo_Uno_60@i 0002                    Servo_Uno_45@i 0002  
                  Servo_Uno_90@i 0002                    Servo_Uno_75@i 0002  
            ?_Servos_60_30_Lento 0001                    Servo_Tres_0@i 0002  
            ?_Servos_60_60_Lento 0001                    _Servo_Cinco_0 1A94  
   Interrupciones_Usart@priority 0002                     ?_Servo_Dos_0 0001  
                    __smallconst 0800                     ?_Servo_Uno_0 0001  
   __end_of_Interrupciones_Usart 1BC4                    _Servo_Seis_30 17BA  
                  _Servo_Seis_15 1562                    _Servo_Seis_60 0FEA  
                  _Servo_Seis_45 1038                    _Servos_150_30 184E  
                  _Servos_150_60 0B6E                    _Servos_150_90 0B04  
                  _Servo_Tres_30 1898                    _Servo_Tres_15 15FA  
                  _Servo_Tres_60 120C                    _Servo_Tres_45 125A  
                  _Servo_Tres_90 11BE                    _Servo_Tres_75 0D76  
__size_of_Servo_Posicion_Inicial 001A             ??_Servos_60_30_Lento 0004  
                    __size_of_Rx 0004               _Servos_90_30_Lento 1B48  
       __size_of_UART0_Tx_String 005E                  Servo_Tres_120@i 0002  
                Servo_Tres_105@i 0002                  Servo_Tres_150@i 0002  
                Servo_Tres_135@i 0002             ??_Servos_60_60_Lento 0004  
             _Servos_90_60_Lento 1692                         _LATBbits 000F8A  
                       _IPR1bits 000F9F                         _PIE1bits 000F9D  
             _Servos_90_90_Lento 0A9A              ?_Servos_90_30_Lento 0001  
                       _PIR1bits 000F9E              ?_Servos_90_60_Lento 0001  
                       _RCONbits 000FD0                 __CFG_WDTPS$32768 000000  
    __end_of_Servos_60_30_Rapido 1BF8              ?_Servos_90_90_Lento 0001  
               ??_Servo_Cinco_30 0001                 ??_Servo_Cinco_15 0001  
               ??_Servo_Cinco_60 0001                 ??_Servo_Cinco_45 0001  
                 ?_Servo_Cinco_0 0001                       _ADCON1bits 000FC1  
    __end_of_Servos_60_60_Rapido 1B9C                 ??_Servo_Cuatro_0 0001  
           ??_Servos_90_30_Lento 0004                   ?_Servo_Seis_30 0001  
                 ?_Servo_Seis_15 0001                   ?_Servo_Seis_60 0001  
                 ?_Servo_Seis_45 0001         __end_of_Servo_Cuatro_120 14CA  
       __end_of_Servo_Cuatro_105 0D76         __end_of_Servo_Cuatro_150 11BE  
       __end_of_Servo_Cuatro_135 147C                  _Servo_Cuatro_30 18E2  
                _Servo_Cuatro_15 1646                  _Servo_Cuatro_60 1392  
                _Servo_Cuatro_45 13E0                  _Servo_Cuatro_90 1344  
                _Servo_Cuatro_75 0DC6                   ?_Servos_150_30 0001  
                 ?_Servos_150_60 0001                   ?_Servos_150_90 0001  
           ??_Servos_90_60_Lento 0004                   ?_Servo_Tres_30 0001  
                 ?_Servo_Tres_15 0001                   ?_Servo_Tres_60 0001  
                 ?_Servo_Tres_45 0001                   ?_Servo_Tres_90 0001  
                 ?_Servo_Tres_75 0001             ??_Servos_90_90_Lento 0004  
               ??_Servos_150_120 0004                 ??_Servos_150_150 0004  
               ??_Servo_Tres_120 0001                 ??_Servo_Tres_105 0001  
               ??_Servo_Tres_150 0001                 ??_Servo_Tres_135 0001  
          __size_of_Servo_Dos_30 004A            __size_of_Servo_Dos_15 004C  
          __size_of_Servo_Dos_60 004E            __size_of_Servo_Dos_45 004E  
          __size_of_Servo_Dos_90 004E            __size_of_Servo_Dos_75 0050  
                       __Hrparam 0000            __size_of_Servo_Seis_0 0048  
                       __Lrparam 0000            __size_of_Servo_Uno_30 004A  
          __size_of_Servo_Uno_15 004C            __size_of_Servo_Uno_60 004E  
          __size_of_Servo_Uno_45 004E            __size_of_Servo_Uno_90 004E  
          __size_of_Servo_Uno_75 0050            __size_of_Servo_Tres_0 0048  
         _Servo_Posicion_Inicial 1BF8                     Servo_Dos_0@i 0002  
                       __ptext10 0EB2                         __ptext11 0F00  
                       __ptext20 1B72                         __ptext12 0F4E  
                       __ptext21 1770                         __ptext13 0F9C  
                   Servo_Uno_0@i 0002                         __ptext30 1804  
                       __ptext22 0FEA                         __ptext14 1BC4  
                       __ptext31 15AE                         __ptext23 1038  
                       __ptext15 1B48                         __ptext40 0A10  
                       __ptext32 0B04                         __ptext24 1086  
                       __ptext16 16DC                         __ptext41 11BE  
                       __ptext33 0B6E                         __ptext25 10D4  
                       __ptext17 14CA                         __ptext50 1392  
                       __ptext42 120C                         __ptext34 184E  
                       __ptext26 1BDE                         __ptext18 1726  
                       __ptext51 13E0                         __ptext43 125A  
                       __ptext35 0966                         __ptext27 1B16  
                       __ptext19 1516                         __ptext60 1BF8  
                       __ptext52 18E2                         __ptext44 1898  
                       __ptext36 1122                         __ptext28 17BA  
                       __ptext61 19BC                         __ptext53 1646  
                       __ptext45 15FA                         __ptext37 192C  
                       __ptext29 1562                         __ptext62 0D76  
                       __ptext54 142E                         __ptext46 12A8  
                       __ptext38 1170                         __ptext63 1A04  
                       __ptext55 147C                         __ptext47 12F6  
                       __ptext39 1974                         __ptext64 1A4C  
                       __ptext56 0D26                         __ptext48 0CD6  
                       __ptext65 0DC6                         __ptext57 1C76  
                       __ptext49 1344                         __ptext66 1A94  
                       __ptext58 1B9C                         __ptext67 1C68  
                       __ptext59 1C2C                         __ptext68 1C12  
    __end_of_Servos_90_30_Rapido 1BDE                     _Servo_Dos_30 1726  
                   _Servo_Dos_15 1516                     _Servo_Dos_60 0F4E  
                   _Servo_Dos_45 0F9C                     _Servo_Dos_90 0E64  
                   _Servo_Dos_75 0C86                     _Servo_Seis_0 1A04  
                   _Servo_Uno_30 16DC                     _Servo_Uno_15 14CA  
                   _Servo_Uno_60 0EB2                     _Servo_Uno_45 0F00  
                   _Servo_Uno_90 0E16                     _Servo_Uno_75 0C36  
                   _Servo_Tres_0 192C          __size_of_Inicializacion 0018  
                  __size_of_main 0146                ??_UART0_Tx_String 0004  
    __end_of_Servos_90_90_Rapido 1B16             _Interrupciones_Usart 1B9C  
                ??_Servo_Cinco_0 0001          __end_of_Servo_Cuatro_30 192C  
        __end_of_Servo_Cuatro_15 1692          __end_of_Servo_Cuatro_60 13E0  
        __end_of_Servo_Cuatro_45 142E          __end_of_Servo_Cuatro_90 1392  
        __end_of_Servo_Cuatro_75 0E16                  ??_Servo_Seis_30 0001  
                ??_Servo_Seis_15 0001                  ??_Servo_Seis_60 0001  
                ??_Servo_Seis_45 0001            __CFG_CPUDIV$OSC1_PLL2 000000  
                ??_Servos_150_30 0004                  ??_Servos_150_60 0004  
                ??_Servos_150_90 0004                  ??_Servo_Tres_30 0001  
                ??_Servo_Tres_15 0001                  ??_Servo_Tres_60 0001  
                ??_Servo_Tres_45 0001                  ??_Servo_Tres_90 0001  
                ??_Servo_Tres_75 0001             __size_of_Servo_Dos_0 0048  
           __size_of_Servo_Uno_0 0048                       _OSCCONbits 000FD3  
          ?_Interrupciones_Usart 0001              __CFG_FOSC$INTOSC_EC 000000  
                  ??_Confi_Servo 0001  
